(lp0
(dp1
I0
S'cup'
p2
sI1
S'fork'
p3
sI2
S'cup'
p4
sI3
S'fork'
p5
sI4
S'plate'
p6
sI5
S'plate'
p7
sI6
S'bowl'
p8
sI7
S'fork'
p9
sI8
S'plate'
p10
sa(lp11
(lp12
(dp13
I4
(I132
I-3
I590
tp14
sI7
(I-29
I-35
I557
tp15
sa(dp16
I4
(I132
I-3
I586
tp17
sI7
(I80
I-33
I583
tp18
saa(lp19
(dp20
I0
(I216
I-16
I601
tp21
sI1
(I83
I-123
I601
tp22
sI2
(I53
I69
I556
tp23
sI4
(I156
I-3
I590
tp24
sI5
(I-43
I-84
I566
tp25
sI6
(I-105
I-104
I561
tp26
sI7
(I-4
I60
I543
tp27
sa(dp28
I0
(I215
I-16
I598
tp29
sI1
(I83
I-123
I601
tp30
sI2
(I53
I69
I556
tp31
sI4
(I152
I-6
I589
tp32
sI5
(I-43
I-84
I567
tp33
sI6
(I-106
I-105
I563
tp34
sI7
(I165
I53
I582
tp35
sa(dp36
I0
(I216
I-16
I600
tp37
sI1
(I14
I-70
I574
tp38
sI2
(I53
I69
I556
tp39
sI4
(I152
I-6
I588
tp40
sI5
(I-43
I-84
I567
tp41
sI6
(I-106
I-105
I563
tp42
sI7
(I165
I53
I581
tp43
saa(lp44
(dp45
I1
(I201
I-92
I622
tp46
sI3
(I77
I-167
I613
tp47
sI4
(I58
I59
I560
tp48
sI5
(I4
I32
I551
tp49
sI6
(I10
I102
I542
tp50
sI7
(I214
I-33
I613
tp51
sI8
(I-53
I-111
I571
tp52
sa(dp53
I1
(I202
I-92
I625
tp54
sI3
(I76
I-167
I613
tp55
sI4
(I58
I59
I558
tp56
sI5
(I4
I32
I550
tp57
sI6
(I10
I102
I542
tp58
sI7
(I117
I82
I568
tp59
sI8
(I-53
I-110
I570
tp60
sa(dp61
I1
(I-56
I7
I541
tp62
sI3
(I53
I-159
I604
tp63
sI4
(I58
I59
I559
tp64
sI5
(I4
I32
I548
tp65
sI6
(I10
I102
I541
tp66
sI7
(I117
I82
I569
tp67
sI8
(I-53
I-110
I569
tp68
sa(dp69
I1
(I-56
I7
I542
tp70
sI3
(I-6
I-71
I569
tp71
sI4
(I58
I59
I560
tp72
sI5
(I4
I32
I550
tp73
sI6
(I10
I102
I542
tp74
sI7
(I117
I82
I568
tp75
sI8
(I-54
I-110
I570
tp76
saa(lp77
(dp78
I0
(I213
I-29
I600
tp79
sI1
(I-68
I2
I541
tp80
sI3
(I80
I-119
I598
tp81
sI4
(I91
I55
I566
tp82
sa(dp83
I0
(I213
I-29
I599
tp84
sI1
(I-68
I2
I541
tp85
sI3
(I70
I112
I552
tp86
sI4
(I91
I55
I568
tp87
saa(lp88
(dp89
I0
(I164
I-63
I597
tp90
sI1
(I-71
I-15
I543
tp91
sI3
(I65
I75
I558
tp92
saa(lp93
(dp94
I8
(I94
I-111
I603
tp95
sI3
(I16
I43
I552
tp96
sI4
(I160
I7
I589
tp97
sa(dp98
I8
(I94
I-111
I602
tp99
sI3
(I32
I-109
I591
tp100
sI4
(I161
I7
I592
tp101
saa(lp102
(dp103
I8
(I-15
I-66
I567
tp104
sI4
(I161
I7
I591
tp105
sI5
(I13
I-8
I559
tp106
saa(lp107
(dp108
I1
(I151
I-146
I622
tp109
sI3
(I-4
I-139
I584
tp110
sI4
(I135
I32
I581
tp111
sI5
(I-18
I19
I545
tp112
sa(dp113
I1
(I150
I-145
I619
tp114
sI3
(I-51
I-37
I553
tp115
sI4
(I135
I32
I581
tp116
sI5
(I-18
I19
I544
tp117
sa(dp118
I1
(I193
I13
I598
tp119
sI3
(I-51
I-37
I553
tp120
sI4
(I135
I32
I582
tp121
sI5
(I-18
I19
I544
tp122
saa(lp123
(dp124
I0
(I104
I-155
I603
tp125
sI3
(I127
I-69
I598
tp126
sI4
(I-22
I3
I553
tp127
sI6
(I158
I-119
I613
tp128
sa(dp129
I0
(I103
I-155
I602
tp130
sI3
(I37
I13
I562
tp131
sI4
(I-22
I3
I551
tp132
sI6
(I159
I-119
I613
tp133
saa(lp134
(dp135
I0
(I120
I-99
I594
tp136
sI3
(I140
I77
I574
tp137
sI4
(I-27
I-6
I552
tp138
sa(dp139
I0
(I121
I-100
I598
tp140
sI3
(I33
I3
I566
tp141
sI4
(I-26
I-6
I551
tp142
saaa.