(dp0
S'irl_2016-09-07_20-24-52.png'
p1
(lp2
(S'action(near, 1, 4)'
p3
F0.07260273972602693
tp4
a(S'action(near, 4, 1)'
p5
F0.0
tp6
asS'irl_2016-09-07_20-30-01.png'
p7
(lp8
(S'action(near, 1, 4)'
p9
F0.07260273972602693
tp10
a(S'action(near, 4, 1)'
p11
F0.0
tp12
asS'irl_2016-09-07_20-10-02.png'
p13
(lp14
(S'action(near, 1, 4)'
p15
F0.07260273972602693
tp16
a(S'action(near, 4, 1)'
p17
F0.0
tp18
asS'irl_2016-09-07_20-43-32.png'
p19
(lp20
(S'action(near, 1, 4)'
p21
F0.07260273972602693
tp22
a(S'action(near, 4, 1)'
p23
F0.0
tp24
asS'irl_2016-09-07_19-05-36.png'
p25
(lp26
(S'action(near, 4, 1)'
p27
F0.0
tp28
a(S'action(near, 1, 4)'
p29
F0.07260273972602693
tp30
asS'irl_2016-09-07_20-44-54.png'
p31
(lp32
(S'action(near, 1, 4)'
p33
F0.07260273972602693
tp34
a(S'action(near, 4, 1)'
p35
F0.0
tp36
asS'irl_2016-09-07_20-21-08.png'
p37
(lp38
(S'action(near, 1, 4)'
p39
F0.07260273972602693
tp40
a(S'action(near, 4, 1)'
p41
F0.0
tp42
asS'irl_2016-09-07_20-41-12.png'
p43
(lp44
(S'action(near, 1, 4)'
p45
F0.07260273972602693
tp46
a(S'action(near, 4, 1)'
p47
F0.0
tp48
asS'irl_2016-09-07_20-26-07.png'
p49
(lp50
(S'action(near, 1, 4)'
p51
F0.07260273972602693
tp52
a(S'action(near, 4, 1)'
p53
F0.0
tp54
asS'irl_2016-09-07_19-52-14.png'
p55
(lp56
(S'action(near, 8, 4)'
p57
F0.07260273972602693
tp58
a(S'action(near, 1, 4)'
p59
F0.07260273972602693
tp60
a(S'action(near, 8, 1)'
p61
F0.0
tp62
a(S'action(near, 1, 8)'
p63
F0.0
tp64
asS'irl_2016-09-07_20-47-12.png'
p65
(lp66
(S'action(near, 1, 4)'
p67
F0.07260273972602693
tp68
a(S'action(near, 4, 1)'
p69
F0.0
tp70
asS'irl_2016-09-07_19-02-43.png'
p71
(lp72
(S'action(near, 8, 4)'
p73
F0.07260273972602693
tp74
a(S'action(near, 1, 4)'
p75
F0.07260273972602693
tp76
a(S'action(near, 8, 1)'
p77
F0.0
tp78
a(S'action(near, 1, 8)'
p79
F0.0
tp80
asS'irl_2016-09-07_20-08-00.png'
p81
(lp82
(S'action(near, 8, 4)'
p83
F0.07260273972602693
tp84
a(S'action(near, 1, 4)'
p85
F0.07260273972602693
tp86
a(S'action(near, 8, 1)'
p87
F0.0
tp88
a(S'action(near, 1, 8)'
p89
F0.0
tp90
asS'irl_2016-09-07_16-32-41.png'
p91
(lp92
(S'done'
p93
F0.09999999999999998
tp94
asS'irl_2016-09-07_16-31-39.png'
p95
(lp96
(S'action(near, 1, 4)'
p97
F0.07260273972602693
tp98
a(S'action(near, 4, 1)'
p99
F0.0
tp100
as.