(lp0
(dp1
I0
S'bowl'
p2
sI1
S'fork'
p3
sI2
S'spoon'
p4
sI3
S'fork'
p5
sI4
S'plate'
p6
sI5
S'plate'
p7
sI7
S'fork'
p8
sI8
S'plate'
p9
sa(lp10
(lp11
(dp12
I1
(I168
I29
I582
tp13
sI5
(I-30
I-36
I566
tp14
sa(dp15
I1
(I30
I-29
I576
tp16
sI5
(I-31
I-37
I563
tp17
saa(lp18
(dp19
I1
(I-75
I32
I539
tp20
sI4
(I66
I89
I549
tp21
sI5
(I57
I-91
I597
tp22
sI7
(I256
I-5
I611
tp23
sa(dp24
I1
(I5
I89
I538
tp25
sI4
(I65
I88
I548
tp26
sI5
(I57
I-91
I597
tp27
sI7
(I256
I-5
I610
tp28
sa(dp29
I1
(I5
I89
I537
tp30
sI4
(I65
I88
I549
tp31
sI5
(I56
I-90
I595
tp32
sI7
(I119
I-94
I609
tp33
saa(lp34
(dp35
I1
(I166
I-62
I605
tp36
sI3
(I48
I-127
I602
tp37
sI4
(I-25
I44
I539
tp38
sI5
(I206
I101
I576
tp39
sI7
(I107
I-94
I602
tp40
sI8
(I-73
I-3
I549
tp41
sa(dp42
I1
(I213
I42
I592
tp43
sI3
(I48
I-127
I604
tp44
sI4
(I-25
I44
I541
tp45
sI5
(I206
I101
I576
tp46
sI7
(I108
I-94
I603
tp47
sI8
(I-73
I-3
I549
tp48
sa(dp49
I1
(I212
I42
I590
tp50
sI3
(I48
I-127
I603
tp51
sI4
(I-25
I44
I539
tp52
sI5
(I205
I101
I575
tp53
sI7
(I30
I68
I547
tp54
sI8
(I-73
I-3
I549
tp55
sa(dp56
I1
(I214
I42
I593
tp57
sI3
(I-115
I-47
I553
tp58
sI4
(I-25
I44
I540
tp59
sI5
(I205
I101
I575
tp60
sI7
(I30
I68
I549
tp61
sI8
(I-73
I-3
I550
tp62
saa(lp63
(dp64
I0
(I71
I16
I564
tp65
sI4
(I205
I50
I584
tp66
sI7
(I-62
I-97
I580
tp67
sa(dp68
I0
(I71
I16
I566
tp69
sI4
(I205
I50
I585
tp70
sI7
(I204
I-7
I597
tp71
saa(lp72
(dp73
I0
(I13
I46
I541
tp74
sI1
(I-31
I-38
I561
tp75
sI2
(I28
I-24
I571
tp76
sI4
(I88
I74
I561
tp77
sI7
(I250
I115
I581
tp78
sI8
(I100
I1
I575
tp79
sa(dp80
I0
(I13
I46
I541
tp81
sI1
(I161
I10
I590
tp82
sI2
(I28
I-24
I570
tp83
sI4
(I89
I74
I562
tp84
sI7
(I250
I115
I581
tp85
sI8
(I101
I2
I578
tp86
sa(dp87
I0
(I13
I46
I540
tp88
sI1
(I161
I10
I589
tp89
sI2
(I28
I-24
I571
tp90
sI4
(I89
I74
I562
tp91
sI7
(I78
I130
I545
tp92
sI8
(I101
I2
I578
tp93
saaa.