(lp0
(lp1
(lp2
((lp3
S'plate(4)'
p4
aS'fork(7)'
p5
a(dp6
S'action(near, 7, 4)'
p7
(lp8
S'pos'
p9
aI2
asS'action(near, 4, 7)'
p10
(lp11
S'neg'
p12
aI1
asS'done'
p13
(lp14
g12
aI1
astp15
a((lp16
S'plate(4)'
p17
aS'fork(7)'
p18
aS'near(4, 7)'
p19
aS'near(7, 4)'
p20
a(dp21
S'action(near, 7, 4)'
p22
(lp23
g12
aI1
asS'action(near, 4, 7)'
p24
(lp25
g12
aI1
asg13
(lp26
g9
aI2
astp27
aa(dp28
I0
S'cup'
p29
sI1
S'fork'
p30
sI2
S'cup'
p31
sI3
S'fork'
p32
sI4
S'plate'
p33
sI5
S'plate'
p34
sI6
S'bowl'
p35
sI7
S'fork'
p36
sI8
S'plate'
p37
sa(lp38
S'near'
p39
aaa(lp40
(lp41
((lp42
S'cup(0)'
p43
aS'fork(1)'
p44
aS'cup(2)'
p45
aS'plate(4)'
p46
aS'plate(5)'
p47
aS'bowl(6)'
p48
aS'fork(7)'
p49
aS'near(0, 4)'
p50
aS'near(2, 7)'
p51
aS'near(4, 0)'
p52
aS'near(5, 6)'
p53
aS'near(6, 5)'
p54
aS'near(7, 2)'
p55
a(dp56
S'action(near, 0, 1)'
p57
(lp58
g12
aI1
asS'action(near, 4, 7)'
p59
(lp60
g12
aI1
asS'action(near, 7, 5)'
p61
(lp62
g12
aI1
asS'action(near, 4, 1)'
p63
(lp64
g12
aI1
asS'action(near, 4, 5)'
p65
(lp66
g12
aI1
asS'action(near, 6, 4)'
p67
(lp68
g12
aI1
asS'action(near, 5, 1)'
p69
(lp70
g12
aI1
asg13
(lp71
g12
aI1
asS'action(near, 2, 0)'
p72
(lp73
g12
aI1
asS'action(near, 6, 2)'
p74
(lp75
g12
aI1
asS'action(near, 6, 0)'
p76
(lp77
g12
aI1
asS'action(near, 5, 7)'
p78
(lp79
g12
aI1
asS'action(near, 7, 1)'
p80
(lp81
g12
aI1
asS'action(near, 2, 6)'
p82
(lp83
g12
aI1
asS'action(near, 2, 4)'
p84
(lp85
g12
aI1
asS'action(near, 1, 4)'
p86
(lp87
g12
aI1
asS'action(near, 0, 6)'
p88
(lp89
g12
aI1
asS'action(near, 1, 0)'
p90
(lp91
g12
aI1
asS'action(near, 1, 6)'
p92
(lp93
g12
aI1
asS'action(near, 7, 2)'
p94
(lp95
g12
aI1
asS'action(near, 1, 2)'
p96
(lp97
g12
aI1
asS'action(near, 4, 2)'
p98
(lp99
g12
aI1
asS'action(near, 0, 4)'
p100
(lp101
g12
aI1
asS'action(near, 0, 2)'
p102
(lp103
g12
aI1
asS'action(near, 4, 0)'
p104
(lp105
g12
aI1
asS'action(near, 4, 6)'
p106
(lp107
g12
aI1
asS'action(near, 6, 5)'
p108
(lp109
g12
aI1
asS'action(near, 6, 1)'
p110
(lp111
g12
aI1
asS'action(near, 6, 7)'
p112
(lp113
g12
aI1
asS'action(near, 5, 0)'
p114
(lp115
g12
aI1
asS'action(near, 5, 4)'
p116
(lp117
g12
aI1
asS'action(near, 5, 2)'
p118
(lp119
g12
aI1
asS'action(near, 2, 1)'
p120
(lp121
g12
aI1
asS'action(near, 5, 6)'
p122
(lp123
g12
aI1
asS'action(near, 2, 5)'
p124
(lp125
g12
aI1
asS'action(near, 7, 0)'
p126
(lp127
g12
aI1
asS'action(near, 2, 7)'
p128
(lp129
g12
aI1
asS'action(near, 1, 5)'
p130
(lp131
g12
aI1
asS'action(near, 7, 6)'
p132
(lp133
g12
aI1
asS'action(near, 7, 4)'
p134
(lp135
g9
aI42
asS'action(near, 0, 7)'
p136
(lp137
g12
aI1
asS'action(near, 1, 7)'
p138
(lp139
g12
aI1
asS'action(near, 0, 5)'
p140
(lp141
g12
aI1
astp142
a((lp143
S'cup(0)'
p144
aS'fork(1)'
p145
aS'cup(2)'
p146
aS'plate(4)'
p147
aS'plate(5)'
p148
aS'bowl(6)'
p149
aS'fork(7)'
p150
aS'near(0, 4)'
p151
aS'near(4, 0)'
p152
aS'near(4, 7)'
p153
aS'near(5, 6)'
p154
aS'near(6, 5)'
p155
aS'near(7, 4)'
p156
a(dp157
S'action(near, 0, 1)'
p158
(lp159
g12
aI1
asS'action(near, 4, 7)'
p160
(lp161
g12
aI1
asS'action(near, 7, 5)'
p162
(lp163
g12
aI1
asS'action(near, 4, 1)'
p164
(lp165
g12
aI1
asS'action(near, 4, 5)'
p166
(lp167
g12
aI1
asS'action(near, 6, 4)'
p168
(lp169
g12
aI1
asS'action(near, 5, 1)'
p170
(lp171
g12
aI1
asg13
(lp172
g12
aI1
asS'action(near, 2, 0)'
p173
(lp174
g12
aI1
asS'action(near, 6, 2)'
p175
(lp176
g12
aI1
asS'action(near, 6, 0)'
p177
(lp178
g12
aI1
asS'action(near, 5, 7)'
p179
(lp180
g12
aI1
asS'action(near, 7, 1)'
p181
(lp182
g12
aI1
asS'action(near, 2, 6)'
p183
(lp184
g12
aI1
asS'action(near, 2, 4)'
p185
(lp186
g12
aI1
asS'action(near, 1, 4)'
p187
(lp188
g12
aI1
asS'action(near, 0, 6)'
p189
(lp190
g12
aI1
asS'action(near, 1, 0)'
p191
(lp192
g12
aI1
asS'action(near, 1, 6)'
p193
(lp194
g12
aI1
asS'action(near, 7, 2)'
p195
(lp196
g12
aI1
asS'action(near, 1, 2)'
p197
(lp198
g12
aI1
asS'action(near, 4, 2)'
p199
(lp200
g12
aI1
asS'action(near, 0, 4)'
p201
(lp202
g12
aI1
asS'action(near, 0, 2)'
p203
(lp204
g12
aI1
asS'action(near, 4, 0)'
p205
(lp206
g12
aI1
asS'action(near, 4, 6)'
p207
(lp208
g12
aI1
asS'action(near, 6, 5)'
p209
(lp210
g12
aI1
asS'action(near, 6, 1)'
p211
(lp212
g12
aI1
asS'action(near, 6, 7)'
p213
(lp214
g12
aI1
asS'action(near, 5, 0)'
p215
(lp216
g12
aI1
asS'action(near, 5, 4)'
p217
(lp218
g12
aI1
asS'action(near, 5, 2)'
p219
(lp220
g12
aI1
asS'action(near, 2, 1)'
p221
(lp222
g12
aI1
asS'action(near, 5, 6)'
p223
(lp224
g12
aI1
asS'action(near, 2, 5)'
p225
(lp226
g12
aI1
asS'action(near, 7, 0)'
p227
(lp228
g12
aI1
asS'action(near, 2, 7)'
p229
(lp230
g12
aI1
asS'action(near, 1, 5)'
p231
(lp232
g9
aI42
asS'action(near, 7, 6)'
p233
(lp234
g12
aI1
asS'action(near, 7, 4)'
p235
(lp236
g12
aI1
asS'action(near, 0, 7)'
p237
(lp238
g12
aI1
asS'action(near, 1, 7)'
p239
(lp240
g12
aI1
asS'action(near, 0, 5)'
p241
(lp242
g12
aI1
astp243
a((lp244
S'cup(0)'
p245
aS'fork(1)'
p246
aS'cup(2)'
p247
aS'plate(4)'
p248
aS'plate(5)'
p249
aS'bowl(6)'
p250
aS'fork(7)'
p251
aS'near(0, 4)'
p252
aS'near(1, 5)'
p253
aS'near(4, 0)'
p254
aS'near(4, 7)'
p255
aS'near(5, 1)'
p256
aS'near(5, 6)'
p257
aS'near(6, 5)'
p258
aS'near(7, 4)'
p259
a(dp260
S'action(near, 0, 1)'
p261
(lp262
g12
aI1
asS'action(near, 4, 7)'
p263
(lp264
g12
aI1
asS'action(near, 7, 5)'
p265
(lp266
g12
aI1
asS'action(near, 4, 1)'
p267
(lp268
g12
aI1
asS'action(near, 4, 5)'
p269
(lp270
g12
aI1
asS'action(near, 6, 4)'
p271
(lp272
g12
aI1
asS'action(near, 5, 1)'
p273
(lp274
g12
aI1
asg13
(lp275
g9
aI42
asS'action(near, 2, 0)'
p276
(lp277
g12
aI1
asS'action(near, 6, 2)'
p278
(lp279
g12
aI1
asS'action(near, 6, 0)'
p280
(lp281
g12
aI1
asS'action(near, 5, 7)'
p282
(lp283
g12
aI1
asS'action(near, 7, 1)'
p284
(lp285
g12
aI1
asS'action(near, 2, 6)'
p286
(lp287
g12
aI1
asS'action(near, 2, 4)'
p288
(lp289
g12
aI1
asS'action(near, 1, 4)'
p290
(lp291
g12
aI1
asS'action(near, 0, 6)'
p292
(lp293
g12
aI1
asS'action(near, 1, 0)'
p294
(lp295
g12
aI1
asS'action(near, 1, 6)'
p296
(lp297
g12
aI1
asS'action(near, 7, 2)'
p298
(lp299
g12
aI1
asS'action(near, 1, 2)'
p300
(lp301
g12
aI1
asS'action(near, 4, 2)'
p302
(lp303
g12
aI1
asS'action(near, 0, 4)'
p304
(lp305
g12
aI1
asS'action(near, 0, 2)'
p306
(lp307
g12
aI1
asS'action(near, 4, 0)'
p308
(lp309
g12
aI1
asS'action(near, 4, 6)'
p310
(lp311
g12
aI1
asS'action(near, 6, 5)'
p312
(lp313
g12
aI1
asS'action(near, 6, 1)'
p314
(lp315
g12
aI1
asS'action(near, 6, 7)'
p316
(lp317
g12
aI1
asS'action(near, 5, 0)'
p318
(lp319
g12
aI1
asS'action(near, 5, 4)'
p320
(lp321
g12
aI1
asS'action(near, 5, 2)'
p322
(lp323
g12
aI1
asS'action(near, 2, 1)'
p324
(lp325
g12
aI1
asS'action(near, 5, 6)'
p326
(lp327
g12
aI1
asS'action(near, 2, 5)'
p328
(lp329
g12
aI1
asS'action(near, 7, 0)'
p330
(lp331
g12
aI1
asS'action(near, 2, 7)'
p332
(lp333
g12
aI1
asS'action(near, 1, 5)'
p334
(lp335
g12
aI1
asS'action(near, 7, 6)'
p336
(lp337
g12
aI1
asS'action(near, 7, 4)'
p338
(lp339
g12
aI1
asS'action(near, 0, 7)'
p340
(lp341
g12
aI1
asS'action(near, 1, 7)'
p342
(lp343
g12
aI1
asS'action(near, 0, 5)'
p344
(lp345
g12
aI1
astp346
aag28
ag38
aa(lp347
(lp348
((lp349
S'fork(1)'
p350
aS'fork(3)'
p351
aS'plate(4)'
p352
aS'plate(5)'
p353
aS'bowl(6)'
p354
aS'fork(7)'
p355
aS'plate(8)'
p356
aS'near(1, 7)'
p357
aS'near(4, 5)'
p358
aS'near(4, 6)'
p359
aS'near(5, 4)'
p360
aS'near(5, 6)'
p361
aS'near(6, 4)'
p362
aS'near(6, 5)'
p363
aS'near(7, 1)'
p364
a(dp365
S'action(near, 4, 7)'
p366
(lp367
g12
aI1
asS'action(near, 3, 1)'
p368
(lp369
g12
aI1
asS'action(near, 4, 1)'
p370
(lp371
g12
aI1
asS'action(near, 6, 8)'
p372
(lp373
g12
aI1
asS'action(near, 4, 5)'
p374
(lp375
g12
aI1
asS'action(near, 6, 4)'
p376
(lp377
g12
aI1
asS'action(near, 5, 1)'
p378
(lp379
g12
aI1
asg13
(lp380
g12
aI1
asS'action(near, 8, 7)'
p381
(lp382
g12
aI1
asS'action(near, 7, 3)'
p383
(lp384
g12
aI1
asS'action(near, 1, 8)'
p385
(lp386
g12
aI1
asS'action(near, 5, 3)'
p387
(lp388
g12
aI1
asS'action(near, 5, 7)'
p389
(lp390
g12
aI1
asS'action(near, 7, 1)'
p391
(lp392
g12
aI1
asS'action(near, 7, 5)'
p393
(lp394
g12
aI1
asS'action(near, 1, 4)'
p395
(lp396
g12
aI1
asS'action(near, 4, 8)'
p397
(lp398
g12
aI1
asS'action(near, 8, 3)'
p399
(lp400
g12
aI1
asS'action(near, 1, 6)'
p401
(lp402
g12
aI1
asS'action(near, 3, 6)'
p403
(lp404
g12
aI1
asS'action(near, 8, 1)'
p405
(lp406
g12
aI1
asS'action(near, 8, 5)'
p407
(lp408
g12
aI1
asS'action(near, 3, 4)'
p409
(lp410
g12
aI1
asS'action(near, 7, 8)'
p411
(lp412
g12
aI1
asS'action(near, 8, 4)'
p413
(lp414
g12
aI1
asS'action(near, 6, 3)'
p415
(lp416
g12
aI1
asS'action(near, 4, 6)'
p417
(lp418
g12
aI1
asS'action(near, 6, 5)'
p419
(lp420
g12
aI1
asS'action(near, 6, 1)'
p421
(lp422
g12
aI1
asS'action(near, 6, 7)'
p423
(lp424
g12
aI1
asS'action(near, 3, 8)'
p425
(lp426
g12
aI1
asS'action(near, 5, 4)'
p427
(lp428
g12
aI1
asS'action(near, 5, 6)'
p429
(lp430
g12
aI1
asS'action(near, 7, 6)'
p431
(lp432
g12
aI1
asS'action(near, 7, 4)'
p433
(lp434
g9
aI42
asS'action(near, 1, 5)'
p435
(lp436
g12
aI1
asS'action(near, 5, 8)'
p437
(lp438
g12
aI1
asS'action(near, 8, 6)'
p439
(lp440
g12
aI1
asS'action(near, 3, 7)'
p441
(lp442
g12
aI1
asS'action(near, 1, 7)'
p443
(lp444
g12
aI1
asS'action(near, 1, 3)'
p445
(lp446
g12
aI1
asS'action(near, 4, 3)'
p447
(lp448
g12
aI1
asS'action(near, 3, 5)'
p449
(lp450
g12
aI1
astp451
a((lp452
S'fork(1)'
p453
aS'fork(3)'
p454
aS'plate(4)'
p455
aS'plate(5)'
p456
aS'bowl(6)'
p457
aS'fork(7)'
p458
aS'plate(8)'
p459
aS'near(4, 5)'
p460
aS'near(4, 6)'
p461
aS'near(4, 7)'
p462
aS'near(5, 4)'
p463
aS'near(5, 6)'
p464
aS'near(6, 4)'
p465
aS'near(6, 5)'
p466
aS'near(7, 4)'
p467
a(dp468
S'action(near, 4, 7)'
p469
(lp470
g12
aI1
asS'action(near, 3, 1)'
p471
(lp472
g12
aI1
asS'action(near, 4, 1)'
p473
(lp474
g12
aI1
asS'action(near, 6, 8)'
p475
(lp476
g12
aI1
asS'action(near, 4, 5)'
p477
(lp478
g12
aI1
asS'action(near, 6, 4)'
p479
(lp480
g12
aI1
asS'action(near, 5, 1)'
p481
(lp482
g12
aI1
asg13
(lp483
g12
aI1
asS'action(near, 8, 7)'
p484
(lp485
g12
aI1
asS'action(near, 7, 3)'
p486
(lp487
g12
aI1
asS'action(near, 1, 8)'
p488
(lp489
g12
aI1
asS'action(near, 5, 3)'
p490
(lp491
g12
aI1
asS'action(near, 5, 7)'
p492
(lp493
g12
aI1
asS'action(near, 7, 1)'
p494
(lp495
g12
aI1
asS'action(near, 7, 5)'
p496
(lp497
g12
aI1
asS'action(near, 1, 4)'
p498
(lp499
g12
aI1
asS'action(near, 4, 8)'
p500
(lp501
g12
aI1
asS'action(near, 8, 3)'
p502
(lp503
g12
aI1
asS'action(near, 1, 6)'
p504
(lp505
g12
aI1
asS'action(near, 3, 6)'
p506
(lp507
g12
aI1
asS'action(near, 8, 1)'
p508
(lp509
g12
aI1
asS'action(near, 8, 5)'
p510
(lp511
g12
aI1
asS'action(near, 3, 4)'
p512
(lp513
g12
aI1
asS'action(near, 7, 8)'
p514
(lp515
g12
aI1
asS'action(near, 8, 4)'
p516
(lp517
g12
aI1
asS'action(near, 6, 3)'
p518
(lp519
g12
aI1
asS'action(near, 4, 6)'
p520
(lp521
g12
aI1
asS'action(near, 6, 5)'
p522
(lp523
g12
aI1
asS'action(near, 6, 1)'
p524
(lp525
g12
aI1
asS'action(near, 6, 7)'
p526
(lp527
g12
aI1
asS'action(near, 3, 8)'
p528
(lp529
g12
aI1
asS'action(near, 5, 4)'
p530
(lp531
g12
aI1
asS'action(near, 5, 6)'
p532
(lp533
g12
aI1
asS'action(near, 7, 6)'
p534
(lp535
g12
aI1
asS'action(near, 7, 4)'
p536
(lp537
g12
aI1
asS'action(near, 1, 5)'
p538
(lp539
g9
aI42
asS'action(near, 5, 8)'
p540
(lp541
g12
aI1
asS'action(near, 8, 6)'
p542
(lp543
g12
aI1
asS'action(near, 3, 7)'
p544
(lp545
g12
aI1
asS'action(near, 1, 7)'
p546
(lp547
g12
aI1
asS'action(near, 1, 3)'
p548
(lp549
g12
aI1
asS'action(near, 4, 3)'
p550
(lp551
g12
aI1
asS'action(near, 3, 5)'
p552
(lp553
g12
aI1
astp554
a((lp555
S'fork(1)'
p556
aS'fork(3)'
p557
aS'plate(4)'
p558
aS'plate(5)'
p559
aS'bowl(6)'
p560
aS'fork(7)'
p561
aS'plate(8)'
p562
aS'near(1, 5)'
p563
aS'near(4, 5)'
p564
aS'near(4, 6)'
p565
aS'near(4, 7)'
p566
aS'near(5, 1)'
p567
aS'near(5, 4)'
p568
aS'near(5, 6)'
p569
aS'near(6, 4)'
p570
aS'near(6, 5)'
p571
aS'near(7, 4)'
p572
a(dp573
S'action(near, 4, 7)'
p574
(lp575
g12
aI1
asS'action(near, 3, 1)'
p576
(lp577
g12
aI1
asS'action(near, 4, 1)'
p578
(lp579
g12
aI1
asS'action(near, 6, 8)'
p580
(lp581
g12
aI1
asS'action(near, 4, 5)'
p582
(lp583
g12
aI1
asS'action(near, 6, 4)'
p584
(lp585
g12
aI1
asS'action(near, 5, 1)'
p586
(lp587
g12
aI1
asg13
(lp588
g12
aI1
asS'action(near, 8, 7)'
p589
(lp590
g12
aI1
asS'action(near, 7, 3)'
p591
(lp592
g12
aI1
asS'action(near, 1, 8)'
p593
(lp594
g12
aI1
asS'action(near, 5, 3)'
p595
(lp596
g12
aI1
asS'action(near, 5, 7)'
p597
(lp598
g12
aI1
asS'action(near, 7, 1)'
p599
(lp600
g12
aI1
asS'action(near, 7, 5)'
p601
(lp602
g12
aI1
asS'action(near, 1, 4)'
p603
(lp604
g12
aI1
asS'action(near, 4, 8)'
p605
(lp606
g12
aI1
asS'action(near, 8, 3)'
p607
(lp608
g12
aI1
asS'action(near, 1, 6)'
p609
(lp610
g12
aI1
asS'action(near, 3, 6)'
p611
(lp612
g12
aI1
asS'action(near, 8, 1)'
p613
(lp614
g12
aI1
asS'action(near, 8, 5)'
p615
(lp616
g12
aI1
asS'action(near, 3, 4)'
p617
(lp618
g12
aI1
asS'action(near, 7, 8)'
p619
(lp620
g12
aI1
asS'action(near, 8, 4)'
p621
(lp622
g12
aI1
asS'action(near, 6, 3)'
p623
(lp624
g12
aI1
asS'action(near, 4, 6)'
p625
(lp626
g12
aI1
asS'action(near, 6, 5)'
p627
(lp628
g12
aI1
asS'action(near, 6, 1)'
p629
(lp630
g12
aI1
asS'action(near, 6, 7)'
p631
(lp632
g12
aI1
asS'action(near, 3, 8)'
p633
(lp634
g9
aI42
asS'action(near, 5, 4)'
p635
(lp636
g12
aI1
asS'action(near, 5, 6)'
p637
(lp638
g12
aI1
asS'action(near, 7, 6)'
p639
(lp640
g12
aI1
asS'action(near, 7, 4)'
p641
(lp642
g12
aI1
asS'action(near, 1, 5)'
p643
(lp644
g12
aI1
asS'action(near, 5, 8)'
p645
(lp646
g12
aI1
asS'action(near, 8, 6)'
p647
(lp648
g12
aI1
asS'action(near, 3, 7)'
p649
(lp650
g12
aI1
asS'action(near, 1, 7)'
p651
(lp652
g12
aI1
asS'action(near, 1, 3)'
p653
(lp654
g12
aI1
asS'action(near, 4, 3)'
p655
(lp656
g12
aI1
asS'action(near, 3, 5)'
p657
(lp658
g12
aI1
astp659
a((lp660
S'fork(1)'
p661
aS'fork(3)'
p662
aS'plate(4)'
p663
aS'plate(5)'
p664
aS'bowl(6)'
p665
aS'fork(7)'
p666
aS'plate(8)'
p667
aS'near(1, 5)'
p668
aS'near(3, 8)'
p669
aS'near(4, 5)'
p670
aS'near(4, 6)'
p671
aS'near(4, 7)'
p672
aS'near(5, 1)'
p673
aS'near(5, 4)'
p674
aS'near(5, 6)'
p675
aS'near(6, 4)'
p676
aS'near(6, 5)'
p677
aS'near(7, 4)'
p678
aS'near(8, 3)'
p679
a(dp680
S'action(near, 4, 7)'
p681
(lp682
g12
aI1
asS'action(near, 3, 1)'
p683
(lp684
g12
aI1
asS'action(near, 4, 1)'
p685
(lp686
g12
aI1
asS'action(near, 6, 8)'
p687
(lp688
g12
aI1
asS'action(near, 4, 5)'
p689
(lp690
g12
aI1
asS'action(near, 6, 4)'
p691
(lp692
g12
aI1
asS'action(near, 5, 1)'
p693
(lp694
g12
aI1
asg13
(lp695
g9
aI42
asS'action(near, 8, 7)'
p696
(lp697
g12
aI1
asS'action(near, 7, 3)'
p698
(lp699
g12
aI1
asS'action(near, 1, 8)'
p700
(lp701
g12
aI1
asS'action(near, 5, 3)'
p702
(lp703
g12
aI1
asS'action(near, 5, 7)'
p704
(lp705
g12
aI1
asS'action(near, 7, 1)'
p706
(lp707
g12
aI1
asS'action(near, 7, 5)'
p708
(lp709
g12
aI1
asS'action(near, 1, 4)'
p710
(lp711
g12
aI1
asS'action(near, 4, 8)'
p712
(lp713
g12
aI1
asS'action(near, 8, 3)'
p714
(lp715
g12
aI1
asS'action(near, 1, 6)'
p716
(lp717
g12
aI1
asS'action(near, 3, 6)'
p718
(lp719
g12
aI1
asS'action(near, 8, 1)'
p720
(lp721
g12
aI1
asS'action(near, 8, 5)'
p722
(lp723
g12
aI1
asS'action(near, 3, 4)'
p724
(lp725
g12
aI1
asS'action(near, 7, 8)'
p726
(lp727
g12
aI1
asS'action(near, 8, 4)'
p728
(lp729
g12
aI1
asS'action(near, 6, 3)'
p730
(lp731
g12
aI1
asS'action(near, 4, 6)'
p732
(lp733
g12
aI1
asS'action(near, 6, 5)'
p734
(lp735
g12
aI1
asS'action(near, 6, 1)'
p736
(lp737
g12
aI1
asS'action(near, 6, 7)'
p738
(lp739
g12
aI1
asS'action(near, 3, 8)'
p740
(lp741
g12
aI1
asS'action(near, 5, 4)'
p742
(lp743
g12
aI1
asS'action(near, 5, 6)'
p744
(lp745
g12
aI1
asS'action(near, 7, 6)'
p746
(lp747
g12
aI1
asS'action(near, 7, 4)'
p748
(lp749
g12
aI1
asS'action(near, 1, 5)'
p750
(lp751
g12
aI1
asS'action(near, 5, 8)'
p752
(lp753
g12
aI1
asS'action(near, 8, 6)'
p754
(lp755
g12
aI1
asS'action(near, 3, 7)'
p756
(lp757
g12
aI1
asS'action(near, 1, 7)'
p758
(lp759
g12
aI1
asS'action(near, 1, 3)'
p760
(lp761
g12
aI1
asS'action(near, 4, 3)'
p762
(lp763
g12
aI1
asS'action(near, 3, 5)'
p764
(lp765
g12
aI1
astp766
aag28
ag38
aa(lp767
(lp768
((lp769
S'cup(0)'
p770
aS'fork(1)'
p771
aS'fork(3)'
p772
aS'plate(4)'
p773
a(dp774
S'action(near, 0, 1)'
p775
(lp776
g12
aI1
asS'action(near, 3, 0)'
p777
(lp778
g12
aI1
asS'action(near, 3, 1)'
p779
(lp780
g12
aI1
asS'action(near, 4, 1)'
p781
(lp782
g12
aI1
asS'action(near, 4, 0)'
p783
(lp784
g12
aI1
asS'action(near, 1, 4)'
p785
(lp786
g12
aI1
asS'action(near, 1, 0)'
p787
(lp788
g12
aI1
asg13
(lp789
g12
aI1
asS'action(near, 0, 3)'
p790
(lp791
g12
aI1
asS'action(near, 1, 3)'
p792
(lp793
g12
aI1
asS'action(near, 3, 4)'
p794
(lp795
g9
aI12
asS'action(near, 4, 3)'
p796
(lp797
g12
aI1
asS'action(near, 0, 4)'
p798
(lp799
g12
aI1
astp800
a((lp801
S'cup(0)'
p802
aS'fork(1)'
p803
aS'fork(3)'
p804
aS'plate(4)'
p805
aS'near(3, 4)'
p806
aS'near(4, 3)'
p807
a(dp808
S'action(near, 0, 1)'
p809
(lp810
g12
aI1
asS'action(near, 3, 0)'
p811
(lp812
g12
aI1
asS'action(near, 3, 1)'
p813
(lp814
g12
aI1
asS'action(near, 4, 1)'
p815
(lp816
g12
aI1
asS'action(near, 4, 0)'
p817
(lp818
g12
aI1
asS'action(near, 1, 4)'
p819
(lp820
g12
aI1
asS'action(near, 1, 0)'
p821
(lp822
g12
aI1
asg13
(lp823
g9
aI12
asS'action(near, 0, 3)'
p824
(lp825
g12
aI1
asS'action(near, 1, 3)'
p826
(lp827
g12
aI1
asS'action(near, 3, 4)'
p828
(lp829
g12
aI1
asS'action(near, 4, 3)'
p830
(lp831
g12
aI1
asS'action(near, 0, 4)'
p832
(lp833
g12
aI1
astp834
aag28
ag38
aa(lp835
(lp836
((lp837
S'cup(0)'
p838
aS'fork(1)'
p839
aS'fork(3)'
p840
a(dp841
S'action(near, 0, 1)'
p842
(lp843
g12
aI1
asS'action(near, 3, 0)'
p844
(lp845
g12
aI1
asS'action(near, 3, 1)'
p846
(lp847
g12
aI1
asS'action(near, 1, 0)'
p848
(lp849
g12
aI1
asg13
(lp850
g9
aI6
asS'action(near, 0, 3)'
p851
(lp852
g12
aI1
asS'action(near, 1, 3)'
p853
(lp854
g12
aI1
astp855
aag28
ag38
aa(lp856
(lp857
((lp858
S'plate(8)'
p859
aS'fork(3)'
p860
aS'plate(4)'
p861
a(dp862
S'action(near, 4, 8)'
p863
(lp864
g12
aI1
asS'action(near, 8, 3)'
p865
(lp866
g12
aI1
asg13
(lp867
g12
aI1
asS'action(near, 8, 4)'
p868
(lp869
g12
aI1
asS'action(near, 3, 8)'
p870
(lp871
g9
aI6
asS'action(near, 3, 4)'
p872
(lp873
g12
aI1
asS'action(near, 4, 3)'
p874
(lp875
g12
aI1
astp876
a((lp877
S'plate(8)'
p878
aS'fork(3)'
p879
aS'plate(4)'
p880
aS'near(8, 3)'
p881
aS'near(3, 8)'
p882
a(dp883
S'action(near, 4, 8)'
p884
(lp885
g12
aI1
asS'action(near, 8, 3)'
p886
(lp887
g12
aI1
asg13
(lp888
g9
aI6
asS'action(near, 8, 4)'
p889
(lp890
g12
aI1
asS'action(near, 3, 8)'
p891
(lp892
g12
aI1
asS'action(near, 3, 4)'
p893
(lp894
g12
aI1
asS'action(near, 4, 3)'
p895
(lp896
g12
aI1
astp897
aag28
ag38
aa(lp898
(lp899
((lp900
S'plate(8)'
p901
aS'plate(4)'
p902
aS'plate(5)'
p903
aS'near(8, 5)'
p904
aS'near(5, 8)'
p905
a(dp906
S'action(near, 4, 5)'
p907
(lp908
g12
aI1
asS'action(near, 5, 8)'
p909
(lp910
g12
aI1
asS'action(near, 4, 8)'
p911
(lp912
g12
aI1
asS'action(near, 8, 5)'
p913
(lp914
g12
aI1
asS'action(near, 8, 4)'
p915
(lp916
g12
aI1
asg13
(lp917
g9
aI6
asS'action(near, 5, 4)'
p918
(lp919
g12
aI1
astp920
aag28
ag38
aa(lp921
(lp922
((lp923
S'fork(1)'
p924
aS'fork(3)'
p925
aS'plate(4)'
p926
aS'plate(5)'
p927
a(dp928
S'action(near, 3, 1)'
p929
(lp930
g12
aI1
asS'action(near, 4, 1)'
p931
(lp932
g12
aI1
asS'action(near, 4, 5)'
p933
(lp934
g12
aI1
asS'action(near, 1, 5)'
p935
(lp936
g12
aI1
asS'action(near, 1, 4)'
p937
(lp938
g12
aI1
asS'action(near, 5, 3)'
p939
(lp940
g12
aI1
asS'action(near, 5, 1)'
p941
(lp942
g12
aI1
asg13
(lp943
g12
aI1
asS'action(near, 5, 4)'
p944
(lp945
g12
aI1
asS'action(near, 1, 3)'
p946
(lp947
g12
aI1
asS'action(near, 3, 4)'
p948
(lp949
g12
aI1
asS'action(near, 4, 3)'
p950
(lp951
g12
aI1
asS'action(near, 3, 5)'
p952
(lp953
g9
aI12
astp954
a((lp955
S'fork(1)'
p956
aS'fork(3)'
p957
aS'plate(4)'
p958
aS'plate(5)'
p959
aS'near(3, 5)'
p960
aS'near(5, 3)'
p961
a(dp962
S'action(near, 3, 1)'
p963
(lp964
g12
aI1
asS'action(near, 4, 1)'
p965
(lp966
g12
aI1
asS'action(near, 4, 5)'
p967
(lp968
g12
aI1
asS'action(near, 1, 5)'
p969
(lp970
g12
aI1
asS'action(near, 1, 4)'
p971
(lp972
g9
aI12
asS'action(near, 5, 3)'
p973
(lp974
g12
aI1
asS'action(near, 5, 1)'
p975
(lp976
g12
aI1
asg13
(lp977
g12
aI1
asS'action(near, 5, 4)'
p978
(lp979
g12
aI1
asS'action(near, 1, 3)'
p980
(lp981
g12
aI1
asS'action(near, 3, 4)'
p982
(lp983
g12
aI1
asS'action(near, 4, 3)'
p984
(lp985
g12
aI1
asS'action(near, 3, 5)'
p986
(lp987
g12
aI1
astp988
a((lp989
S'fork(1)'
p990
aS'fork(3)'
p991
aS'plate(4)'
p992
aS'plate(5)'
p993
aS'near(1, 4)'
p994
aS'near(3, 5)'
p995
aS'near(4, 1)'
p996
aS'near(5, 3)'
p997
a(dp998
S'action(near, 3, 1)'
p999
(lp1000
g12
aI1
asS'action(near, 4, 1)'
p1001
(lp1002
g12
aI1
asS'action(near, 4, 5)'
p1003
(lp1004
g12
aI1
asS'action(near, 1, 5)'
p1005
(lp1006
g12
aI1
asS'action(near, 1, 4)'
p1007
(lp1008
g12
aI1
asS'action(near, 5, 3)'
p1009
(lp1010
g12
aI1
asS'action(near, 5, 1)'
p1011
(lp1012
g12
aI1
asg13
(lp1013
g9
aI12
asS'action(near, 5, 4)'
p1014
(lp1015
g12
aI1
asS'action(near, 1, 3)'
p1016
(lp1017
g12
aI1
asS'action(near, 3, 4)'
p1018
(lp1019
g12
aI1
asS'action(near, 4, 3)'
p1020
(lp1021
g12
aI1
asS'action(near, 3, 5)'
p1022
(lp1023
g12
aI1
astp1024
aag28
ag38
aa(lp1025
(lp1026
((lp1027
S'cup(0)'
p1028
aS'fork(3)'
p1029
aS'plate(4)'
p1030
aS'bowl(6)'
p1031
aS'near(0, 6)'
p1032
aS'near(3, 6)'
p1033
aS'near(6, 0)'
p1034
aS'near(6, 3)'
p1035
a(dp1036
S'action(near, 3, 0)'
p1037
(lp1038
g12
aI1
asS'action(near, 4, 0)'
p1039
(lp1040
g12
aI1
asS'action(near, 6, 4)'
p1041
(lp1042
g12
aI1
asS'action(near, 4, 6)'
p1043
(lp1044
g12
aI1
asS'action(near, 0, 6)'
p1045
(lp1046
g12
aI1
asg13
(lp1047
g12
aI1
asS'action(near, 3, 6)'
p1048
(lp1049
g12
aI1
asS'action(near, 6, 3)'
p1050
(lp1051
g12
aI1
asS'action(near, 0, 3)'
p1052
(lp1053
g12
aI1
asS'action(near, 3, 4)'
p1054
(lp1055
g9
aI12
asS'action(near, 6, 0)'
p1056
(lp1057
g12
aI1
asS'action(near, 4, 3)'
p1058
(lp1059
g12
aI1
asS'action(near, 0, 4)'
p1060
(lp1061
g12
aI1
astp1062
a((lp1063
S'cup(0)'
p1064
aS'fork(3)'
p1065
aS'plate(4)'
p1066
aS'bowl(6)'
p1067
aS'near(0, 6)'
p1068
aS'near(3, 4)'
p1069
aS'near(4, 3)'
p1070
aS'near(6, 0)'
p1071
a(dp1072
S'action(near, 3, 0)'
p1073
(lp1074
g12
aI1
asS'action(near, 4, 0)'
p1075
(lp1076
g12
aI1
asS'action(near, 6, 4)'
p1077
(lp1078
g12
aI1
asS'action(near, 4, 6)'
p1079
(lp1080
g12
aI1
asS'action(near, 0, 6)'
p1081
(lp1082
g12
aI1
asg13
(lp1083
g9
aI12
asS'action(near, 3, 6)'
p1084
(lp1085
g12
aI1
asS'action(near, 6, 3)'
p1086
(lp1087
g12
aI1
asS'action(near, 0, 3)'
p1088
(lp1089
g12
aI1
asS'action(near, 3, 4)'
p1090
(lp1091
g12
aI1
asS'action(near, 6, 0)'
p1092
(lp1093
g12
aI1
asS'action(near, 4, 3)'
p1094
(lp1095
g12
aI1
asS'action(near, 0, 4)'
p1096
(lp1097
g12
aI1
astp1098
aag28
ag38
aa(lp1099
(lp1100
((lp1101
S'cup(0)'
p1102
aS'fork(3)'
p1103
aS'plate(4)'
p1104
a(dp1105
S'action(near, 3, 0)'
p1106
(lp1107
g12
aI1
asS'action(near, 4, 0)'
p1108
(lp1109
g12
aI1
asg13
(lp1110
g12
aI1
asS'action(near, 0, 3)'
p1111
(lp1112
g12
aI1
asS'action(near, 3, 4)'
p1113
(lp1114
g9
aI6
asS'action(near, 4, 3)'
p1115
(lp1116
g12
aI1
asS'action(near, 0, 4)'
p1117
(lp1118
g12
aI1
astp1119
a((lp1120
S'cup(0)'
p1121
aS'fork(3)'
p1122
aS'plate(4)'
p1123
aS'near(3, 4)'
p1124
aS'near(4, 3)'
p1125
a(dp1126
S'action(near, 3, 0)'
p1127
(lp1128
g12
aI1
asS'action(near, 4, 0)'
p1129
(lp1130
g12
aI1
asg13
(lp1131
g9
aI6
asS'action(near, 0, 3)'
p1132
(lp1133
g12
aI1
asS'action(near, 3, 4)'
p1134
(lp1135
g12
aI1
asS'action(near, 4, 3)'
p1136
(lp1137
g12
aI1
asS'action(near, 0, 4)'
p1138
(lp1139
g12
aI1
astp1140
aag28
ag38
aa.