(lp0
(lp1
(lp2
((lp3
S'plate(4)'
p4
aS'fork(7)'
p5
aS'not_near(4, 7)'
p6
aS'east(4, 7)'
p7
aS'not_west(4, 7)'
p8
aS'not_south(4, 7)'
p9
aS'not_near(7, 4)'
p10
aS'not_east(7, 4)'
p11
aS'west(7, 4)'
p12
aS'not_south(7, 4)'
p13
a(dp14
S'action(east, 4, 7)'
p15
(lp16
S'neg'
p17
aI1
asS'action(near, 4, 7)'
p18
(lp19
g17
aI1
asS'action(near, 7, 4)'
p20
(lp21
S'pos'
p22
aI10
asS'action(north, 4, 7)'
p23
(lp24
g17
aI1
asS'action(south, 4, 7)'
p25
(lp26
g17
aI1
asS'action(east, 7, 4)'
p27
(lp28
g17
aI1
asS'action(north, 7, 4)'
p29
(lp30
g17
aI1
asS'done'
p31
(lp32
g17
aI1
asS'action(west, 7, 4)'
p33
(lp34
g17
aI1
asS'action(south, 7, 4)'
p35
(lp36
g17
aI1
asS'action(west, 4, 7)'
p37
(lp38
g17
aI1
astp39
a((lp40
S'plate(4)'
p41
aS'fork(7)'
p42
aS'near(4, 7)'
p43
aS'east(4, 7)'
p44
aS'not_west(4, 7)'
p45
aS'not_south(4, 7)'
p46
aS'near(7, 4)'
p47
aS'not_east(7, 4)'
p48
aS'west(7, 4)'
p49
aS'not_south(7, 4)'
p50
a(dp51
S'action(east, 4, 7)'
p52
(lp53
g17
aI1
asS'action(near, 4, 7)'
p54
(lp55
g17
aI1
asS'action(near, 7, 4)'
p56
(lp57
g17
aI1
asS'action(north, 4, 7)'
p58
(lp59
g17
aI1
asS'action(south, 4, 7)'
p60
(lp61
g17
aI1
asS'action(east, 7, 4)'
p62
(lp63
g17
aI1
asS'action(north, 7, 4)'
p64
(lp65
g17
aI1
asg31
(lp66
g22
aI10
asS'action(west, 7, 4)'
p67
(lp68
g17
aI1
asS'action(south, 7, 4)'
p69
(lp70
g17
aI1
asS'action(west, 4, 7)'
p71
(lp72
g17
aI1
astp73
aa(dp74
I0
S'cup'
p75
sI1
S'fork'
p76
sI2
S'cup'
p77
sI3
S'fork'
p78
sI4
S'plate'
p79
sI5
S'plate'
p80
sI6
S'bowl'
p81
sI7
S'fork'
p82
sI8
S'plate'
p83
sa(lp84
S'near'
p85
aS'east'
p86
aS'west'
p87
aS'north'
p88
aS'south'
p89
aaa(lp90
(lp91
((lp92
S'cup(0)'
p93
aS'fork(1)'
p94
aS'cup(2)'
p95
aS'plate(4)'
p96
aS'plate(5)'
p97
aS'bowl(6)'
p98
aS'fork(7)'
p99
aS'not_near(0, 1)'
p100
aS'east(0, 1)'
p101
aS'not_west(0, 1)'
p102
aS'not_south(0, 1)'
p103
aS'not_near(0, 2)'
p104
aS'east(0, 2)'
p105
aS'not_west(0, 2)'
p106
aS'south(0, 2)'
p107
aS'near(0, 4)'
p108
aS'east(0, 4)'
p109
aS'not_west(0, 4)'
p110
aS'not_south(0, 4)'
p111
aS'not_near(0, 5)'
p112
aS'east(0, 5)'
p113
aS'not_west(0, 5)'
p114
aS'not_south(0, 5)'
p115
aS'not_near(0, 6)'
p116
aS'east(0, 6)'
p117
aS'not_west(0, 6)'
p118
aS'not_south(0, 6)'
p119
aS'not_near(0, 7)'
p120
aS'east(0, 7)'
p121
aS'not_west(0, 7)'
p122
aS'south(0, 7)'
p123
aS'not_near(1, 0)'
p124
aS'not_east(1, 0)'
p125
aS'west(1, 0)'
p126
aS'south(1, 0)'
p127
aS'not_near(1, 2)'
p128
aS'not_east(1, 2)'
p129
aS'not_west(1, 2)'
p130
aS'south(1, 2)'
p131
aS'not_near(1, 4)'
p132
aS'not_east(1, 4)'
p133
aS'west(1, 4)'
p134
aS'south(1, 4)'
p135
aS'not_near(1, 5)'
p136
aS'east(1, 5)'
p137
aS'not_west(1, 5)'
p138
aS'not_south(1, 5)'
p139
aS'not_near(1, 6)'
p140
aS'east(1, 6)'
p141
aS'not_west(1, 6)'
p142
aS'not_south(1, 6)'
p143
aS'not_near(1, 7)'
p144
aS'east(1, 7)'
p145
aS'not_west(1, 7)'
p146
aS'south(1, 7)'
p147
aS'not_near(2, 0)'
p148
aS'not_east(2, 0)'
p149
aS'west(2, 0)'
p150
aS'not_south(2, 0)'
p151
aS'not_near(2, 1)'
p152
aS'not_east(2, 1)'
p153
aS'not_west(2, 1)'
p154
aS'not_south(2, 1)'
p155
aS'not_near(2, 4)'
p156
aS'not_east(2, 4)'
p157
aS'west(2, 4)'
p158
aS'not_south(2, 4)'
p159
aS'not_near(2, 5)'
p160
aS'east(2, 5)'
p161
aS'not_west(2, 5)'
p162
aS'not_south(2, 5)'
p163
aS'not_near(2, 6)'
p164
aS'east(2, 6)'
p165
aS'not_west(2, 6)'
p166
aS'not_south(2, 6)'
p167
aS'near(2, 7)'
p168
aS'east(2, 7)'
p169
aS'not_west(2, 7)'
p170
aS'not_south(2, 7)'
p171
aS'near(4, 0)'
p172
aS'not_east(4, 0)'
p173
aS'west(4, 0)'
p174
aS'not_south(4, 0)'
p175
aS'not_near(4, 1)'
p176
aS'east(4, 1)'
p177
aS'not_west(4, 1)'
p178
aS'not_south(4, 1)'
p179
aS'not_near(4, 2)'
p180
aS'east(4, 2)'
p181
aS'not_west(4, 2)'
p182
aS'south(4, 2)'
p183
aS'not_near(4, 5)'
p184
aS'east(4, 5)'
p185
aS'not_west(4, 5)'
p186
aS'not_south(4, 5)'
p187
aS'not_near(4, 6)'
p188
aS'east(4, 6)'
p189
aS'not_west(4, 6)'
p190
aS'not_south(4, 6)'
p191
aS'not_near(4, 7)'
p192
aS'east(4, 7)'
p193
aS'not_west(4, 7)'
p194
aS'south(4, 7)'
p195
aS'not_near(5, 0)'
p196
aS'not_east(5, 0)'
p197
aS'west(5, 0)'
p198
aS'south(5, 0)'
p199
aS'not_near(5, 1)'
p200
aS'not_east(5, 1)'
p201
aS'west(5, 1)'
p202
aS'not_south(5, 1)'
p203
aS'not_near(5, 2)'
p204
aS'not_east(5, 2)'
p205
aS'west(5, 2)'
p206
aS'south(5, 2)'
p207
aS'not_near(5, 4)'
p208
aS'not_east(5, 4)'
p209
aS'west(5, 4)'
p210
aS'south(5, 4)'
p211
aS'near(5, 6)'
p212
aS'east(5, 6)'
p213
aS'not_west(5, 6)'
p214
aS'not_south(5, 6)'
p215
aS'not_near(5, 7)'
p216
aS'not_east(5, 7)'
p217
aS'not_west(5, 7)'
p218
aS'south(5, 7)'
p219
aS'not_near(6, 0)'
p220
aS'not_east(6, 0)'
p221
aS'west(6, 0)'
p222
aS'south(6, 0)'
p223
aS'not_near(6, 1)'
p224
aS'not_east(6, 1)'
p225
aS'west(6, 1)'
p226
aS'not_south(6, 1)'
p227
aS'not_near(6, 2)'
p228
aS'not_east(6, 2)'
p229
aS'west(6, 2)'
p230
aS'south(6, 2)'
p231
aS'not_near(6, 4)'
p232
aS'not_east(6, 4)'
p233
aS'west(6, 4)'
p234
aS'south(6, 4)'
p235
aS'near(6, 5)'
p236
aS'not_east(6, 5)'
p237
aS'west(6, 5)'
p238
aS'not_south(6, 5)'
p239
aS'not_near(6, 7)'
p240
aS'not_east(6, 7)'
p241
aS'west(6, 7)'
p242
aS'south(6, 7)'
p243
aS'not_near(7, 0)'
p244
aS'not_east(7, 0)'
p245
aS'west(7, 0)'
p246
aS'not_south(7, 0)'
p247
aS'not_near(7, 1)'
p248
aS'not_east(7, 1)'
p249
aS'west(7, 1)'
p250
aS'not_south(7, 1)'
p251
aS'near(7, 2)'
p252
aS'not_east(7, 2)'
p253
aS'west(7, 2)'
p254
aS'not_south(7, 2)'
p255
aS'not_near(7, 4)'
p256
aS'not_east(7, 4)'
p257
aS'west(7, 4)'
p258
aS'not_south(7, 4)'
p259
aS'not_near(7, 5)'
p260
aS'not_east(7, 5)'
p261
aS'not_west(7, 5)'
p262
aS'not_south(7, 5)'
p263
aS'not_near(7, 6)'
p264
aS'east(7, 6)'
p265
aS'not_west(7, 6)'
p266
aS'not_south(7, 6)'
p267
a(dp268
S'action(west, 5, 0)'
p269
(lp270
g17
aI1
asS'action(south, 4, 0)'
p271
(lp272
g17
aI1
asS'action(west, 6, 5)'
p273
(lp274
g17
aI1
asS'action(near, 4, 5)'
p275
(lp276
g17
aI1
asS'action(near, 6, 4)'
p277
(lp278
g17
aI1
asS'action(north, 7, 5)'
p279
(lp280
g17
aI1
asS'action(north, 5, 4)'
p281
(lp282
g17
aI1
asS'action(east, 4, 1)'
p283
(lp284
g17
aI1
asS'action(east, 1, 4)'
p285
(lp286
g17
aI1
asS'action(south, 2, 1)'
p287
(lp288
g17
aI1
asS'action(north, 4, 2)'
p289
(lp290
g17
aI1
asS'action(west, 1, 5)'
p291
(lp292
g17
aI1
asS'action(south, 0, 1)'
p293
(lp294
g17
aI1
asS'action(near, 5, 7)'
p295
(lp296
g17
aI1
asS'action(north, 0, 1)'
p297
(lp298
g17
aI1
asS'action(east, 2, 0)'
p299
(lp300
g17
aI1
asS'action(near, 7, 5)'
p301
(lp302
g17
aI1
asS'action(west, 0, 5)'
p303
(lp304
g17
aI1
asS'action(south, 6, 1)'
p305
(lp306
g17
aI1
asS'action(near, 1, 0)'
p307
(lp308
g17
aI1
asS'action(west, 2, 5)'
p309
(lp310
g17
aI1
asS'action(west, 5, 7)'
p311
(lp312
g17
aI1
asS'action(north, 4, 6)'
p313
(lp314
g17
aI1
asS'action(south, 4, 1)'
p315
(lp316
g17
aI1
asS'action(west, 7, 0)'
p317
(lp318
g17
aI1
asS'action(west, 4, 6)'
p319
(lp320
g17
aI1
asS'action(east, 0, 7)'
p321
(lp322
g17
aI1
asS'action(east, 6, 4)'
p323
(lp324
g17
aI1
asS'action(south, 6, 7)'
p325
(lp326
g17
aI1
asS'action(west, 6, 4)'
p327
(lp328
g17
aI1
asS'action(north, 1, 4)'
p329
(lp330
g17
aI1
asS'action(east, 6, 2)'
p331
(lp332
g17
aI1
asS'action(north, 4, 5)'
p333
(lp334
g17
aI1
asS'action(near, 4, 6)'
p335
(lp336
g17
aI1
asS'action(near, 6, 5)'
p337
(lp338
g17
aI1
asS'action(east, 4, 0)'
p339
(lp340
g17
aI1
asS'action(east, 5, 7)'
p341
(lp342
g17
aI1
asS'action(north, 6, 5)'
p343
(lp344
g17
aI1
asS'action(south, 2, 0)'
p345
(lp346
g17
aI1
asS'action(east, 4, 5)'
p347
(lp348
g17
aI1
asS'action(south, 5, 2)'
p349
(lp350
g17
aI1
asS'action(east, 1, 5)'
p351
(lp352
g17
aI1
asS'action(near, 5, 6)'
p353
(lp354
g17
aI1
asS'action(north, 7, 4)'
p355
(lp356
g17
aI1
asS'action(west, 0, 4)'
p357
(lp358
g17
aI1
asS'action(near, 2, 7)'
p359
(lp360
g17
aI1
asS'action(south, 1, 6)'
p361
(lp362
g17
aI1
asS'action(south, 5, 1)'
p363
(lp364
g17
aI1
asS'action(west, 2, 4)'
p365
(lp366
g17
aI1
asS'action(near, 7, 4)'
p367
(lp368
g22
aI51
asS'action(east, 0, 6)'
p369
(lp370
g17
aI1
asS'action(east, 7, 0)'
p371
(lp372
g17
aI1
asS'action(east, 5, 2)'
p373
(lp374
g17
aI1
asS'action(south, 7, 4)'
p375
(lp376
g17
aI1
asS'action(near, 4, 7)'
p377
(lp378
g17
aI1
asS'action(north, 1, 5)'
p379
(lp380
g17
aI1
asS'action(east, 7, 1)'
p381
(lp382
g22
aI51
asS'action(east, 6, 1)'
p383
(lp384
g17
aI1
asS'action(north, 6, 4)'
p385
(lp386
g17
aI1
asS'action(north, 5, 6)'
p387
(lp388
g17
aI1
asS'action(east, 7, 2)'
p389
(lp390
g22
aI51
asS'action(south, 2, 7)'
p391
(lp392
g17
aI1
asS'action(west, 5, 6)'
p393
(lp394
g17
aI1
asS'action(near, 6, 2)'
p395
(lp396
g17
aI1
asS'action(north, 0, 7)'
p397
(lp398
g17
aI1
asS'action(east, 7, 6)'
p399
(lp400
g17
aI1
asS'action(west, 7, 1)'
p401
(lp402
g17
aI1
asS'action(north, 2, 5)'
p403
(lp404
g17
aI1
asS'action(west, 4, 5)'
p405
(lp406
g17
aI1
asS'action(south, 7, 5)'
p407
(lp408
g17
aI1
asS'action(east, 1, 2)'
p409
(lp410
g17
aI1
asS'action(near, 2, 4)'
p411
(lp412
g17
aI1
asS'action(east, 2, 6)'
p413
(lp414
g17
aI1
asS'action(east, 2, 7)'
p415
(lp416
g17
aI1
asS'action(near, 1, 6)'
p417
(lp418
g17
aI1
asS'action(west, 2, 7)'
p419
(lp420
g17
aI1
asS'action(south, 5, 6)'
p421
(lp422
g17
aI1
asS'action(east, 0, 1)'
p423
(lp424
g17
aI1
asS'action(south, 1, 0)'
p425
(lp426
g17
aI1
asS'action(west, 7, 5)'
p427
(lp428
g17
aI1
asS'action(near, 0, 4)'
p429
(lp430
g17
aI1
asS'action(west, 4, 2)'
p431
(lp432
g17
aI1
asS'action(east, 6, 0)'
p433
(lp434
g17
aI1
asS'action(north, 5, 7)'
p435
(lp436
g17
aI1
asS'action(south, 6, 5)'
p437
(lp438
g17
aI1
asS'action(near, 4, 0)'
p439
(lp440
g17
aI1
asS'action(east, 4, 2)'
p441
(lp442
g17
aI1
asS'action(near, 1, 7)'
p443
(lp444
g17
aI1
asS'action(west, 7, 2)'
p445
(lp446
g17
aI1
asS'action(north, 6, 7)'
p447
(lp448
g17
aI1
asS'action(south, 2, 6)'
p449
(lp450
g17
aI1
asS'action(north, 7, 0)'
p451
(lp452
g17
aI1
asS'action(near, 5, 4)'
p453
(lp454
g17
aI1
asS'action(south, 0, 2)'
p455
(lp456
g17
aI1
asS'action(north, 0, 6)'
p457
(lp458
g17
aI1
asS'action(south, 4, 5)'
p459
(lp460
g17
aI1
asS'action(near, 2, 5)'
p461
(lp462
g17
aI1
asS'action(south, 6, 4)'
p463
(lp464
g17
aI1
asS'action(west, 0, 2)'
p465
(lp466
g17
aI1
asS'action(north, 2, 4)'
p467
(lp468
g17
aI1
asS'action(west, 5, 1)'
p469
(lp470
g17
aI1
asS'action(east, 5, 0)'
p471
(lp472
g17
aI1
asS'action(west, 2, 6)'
p473
(lp474
g17
aI1
asS'action(south, 7, 6)'
p475
(lp476
g17
aI1
asS'action(north, 0, 2)'
p477
(lp478
g17
aI1
asS'action(east, 2, 5)'
p479
(lp480
g17
aI1
asS'action(west, 6, 7)'
p481
(lp482
g17
aI1
asS'action(north, 1, 7)'
p483
(lp484
g17
aI1
asS'action(near, 0, 5)'
p485
(lp486
g17
aI1
asS'action(west, 1, 7)'
p487
(lp488
g17
aI1
asS'action(south, 4, 2)'
p489
(lp490
g17
aI1
asS'action(west, 7, 6)'
p491
(lp492
g17
aI1
asS'action(west, 5, 2)'
p493
(lp494
g17
aI1
asS'action(near, 2, 6)'
p495
(lp496
g17
aI1
asS'action(near, 4, 1)'
p497
(lp498
g17
aI1
asS'action(west, 4, 1)'
p499
(lp500
g17
aI1
asS'action(east, 6, 7)'
p501
(lp502
g17
aI1
asS'action(south, 2, 5)'
p503
(lp504
g17
aI1
asS'action(south, 1, 7)'
p505
(lp506
g17
aI1
asS'action(west, 6, 1)'
p507
(lp508
g17
aI1
asS'action(north, 5, 0)'
p509
(lp510
g17
aI1
asS'action(east, 7, 4)'
p511
(lp512
g17
aI1
asS'action(north, 0, 5)'
p513
(lp514
g17
aI1
asS'action(south, 4, 6)'
p515
(lp516
g17
aI1
asg31
(lp517
g17
aI1
asS'action(near, 1, 4)'
p518
(lp519
g17
aI1
asS'action(north, 2, 7)'
p520
(lp521
g17
aI1
asS'action(west, 0, 1)'
p522
(lp523
g17
aI1
asS'action(near, 6, 0)'
p524
(lp525
g17
aI1
asS'action(south, 0, 5)'
p526
(lp527
g17
aI1
asS'action(near, 7, 1)'
p528
(lp529
g17
aI1
asS'action(south, 5, 4)'
p530
(lp531
g17
aI1
asS'action(east, 2, 4)'
p532
(lp533
g17
aI1
asS'action(east, 1, 0)'
p534
(lp535
g17
aI1
asS'action(east, 5, 1)'
p536
(lp537
g17
aI1
asS'action(west, 2, 1)'
p538
(lp539
g17
aI1
asS'action(near, 0, 6)'
p540
(lp541
g17
aI1
asS'action(near, 2, 1)'
p542
(lp543
g17
aI1
asS'action(south, 5, 7)'
p544
(lp545
g17
aI1
asS'action(north, 1, 6)'
p546
(lp547
g17
aI1
asS'action(north, 7, 1)'
p548
(lp549
g17
aI1
asS'action(west, 1, 2)'
p550
(lp551
g17
aI1
asS'action(west, 6, 0)'
p552
(lp553
g17
aI1
asS'action(north, 1, 0)'
p554
(lp555
g17
aI1
asS'action(east, 7, 5)'
p556
(lp557
g22
aI51
asS'action(near, 7, 6)'
p558
(lp559
g17
aI1
asS'action(north, 6, 1)'
p560
(lp561
g17
aI1
asS'action(south, 2, 4)'
p562
(lp563
g17
aI1
asS'action(near, 6, 1)'
p564
(lp565
g17
aI1
asS'action(west, 1, 4)'
p566
(lp567
g17
aI1
asS'action(north, 0, 4)'
p568
(lp569
g17
aI1
asS'action(near, 5, 2)'
p570
(lp571
g17
aI1
asS'action(south, 0, 4)'
p572
(lp573
g17
aI1
asS'action(north, 2, 6)'
p574
(lp575
g17
aI1
asS'action(north, 5, 2)'
p576
(lp577
g17
aI1
asS'action(near, 7, 0)'
p578
(lp579
g17
aI1
asS'action(south, 7, 0)'
p580
(lp581
g17
aI1
asS'action(south, 5, 0)'
p582
(lp583
g17
aI1
asS'action(west, 2, 0)'
p584
(lp585
g17
aI1
asS'action(east, 0, 2)'
p586
(lp587
g17
aI1
asS'action(west, 1, 0)'
p588
(lp589
g17
aI1
asS'action(south, 6, 0)'
p590
(lp591
g17
aI1
asS'action(near, 0, 7)'
p592
(lp593
g17
aI1
asS'action(near, 1, 5)'
p594
(lp595
g17
aI1
asS'action(east, 5, 6)'
p596
(lp597
g17
aI1
asS'action(west, 7, 4)'
p598
(lp599
g17
aI1
asS'action(near, 0, 1)'
p600
(lp601
g17
aI1
asS'action(east, 4, 7)'
p602
(lp603
g17
aI1
asS'action(south, 1, 5)'
p604
(lp605
g17
aI1
asS'action(south, 1, 2)'
p606
(lp607
g17
aI1
asS'action(north, 6, 0)'
p608
(lp609
g17
aI1
asS'action(south, 0, 7)'
p610
(lp611
g17
aI1
asS'action(near, 5, 1)'
p612
(lp613
g17
aI1
asS'action(near, 2, 0)'
p614
(lp615
g17
aI1
asS'action(north, 7, 2)'
p616
(lp617
g17
aI1
asS'action(south, 7, 1)'
p618
(lp619
g17
aI1
asS'action(east, 1, 6)'
p620
(lp621
g17
aI1
asS'action(north, 6, 2)'
p622
(lp623
g17
aI1
asS'action(north, 2, 1)'
p624
(lp625
g17
aI1
asS'action(west, 0, 7)'
p626
(lp627
g17
aI1
asS'action(north, 7, 6)'
p628
(lp629
g17
aI1
asS'action(near, 1, 2)'
p630
(lp631
g17
aI1
asS'action(near, 4, 2)'
p632
(lp633
g17
aI1
asS'action(west, 4, 0)'
p634
(lp635
g17
aI1
asS'action(east, 0, 5)'
p636
(lp637
g17
aI1
asS'action(west, 1, 6)'
p638
(lp639
g17
aI1
asS'action(west, 6, 2)'
p640
(lp641
g17
aI1
asS'action(near, 0, 2)'
p642
(lp643
g17
aI1
asS'action(east, 4, 6)'
p644
(lp645
g17
aI1
asS'action(south, 4, 7)'
p646
(lp647
g17
aI1
asS'action(south, 1, 4)'
p648
(lp649
g17
aI1
asS'action(north, 4, 7)'
p650
(lp651
g17
aI1
asS'action(north, 1, 2)'
p652
(lp653
g17
aI1
asS'action(north, 5, 1)'
p654
(lp655
g17
aI1
asS'action(north, 4, 1)'
p656
(lp657
g17
aI1
asS'action(near, 6, 7)'
p658
(lp659
g17
aI1
asS'action(near, 5, 0)'
p660
(lp661
g17
aI1
asS'action(south, 0, 6)'
p662
(lp663
g17
aI1
asS'action(south, 7, 2)'
p664
(lp665
g17
aI1
asS'action(near, 7, 2)'
p666
(lp667
g17
aI1
asS'action(east, 2, 1)'
p668
(lp669
g17
aI1
asS'action(east, 1, 7)'
p670
(lp671
g17
aI1
asS'action(west, 0, 6)'
p672
(lp673
g17
aI1
asS'action(north, 2, 0)'
p674
(lp675
g17
aI1
asS'action(west, 5, 4)'
p676
(lp677
g17
aI1
asS'action(south, 6, 2)'
p678
(lp679
g17
aI1
asS'action(east, 0, 4)'
p680
(lp681
g17
aI1
asS'action(east, 6, 5)'
p682
(lp683
g17
aI1
asS'action(north, 4, 0)'
p684
(lp685
g17
aI1
asS'action(east, 5, 4)'
p686
(lp687
g17
aI1
asS'action(west, 4, 7)'
p688
(lp689
g17
aI1
astp690
a((lp691
S'cup(0)'
p692
aS'fork(1)'
p693
aS'cup(2)'
p694
aS'plate(4)'
p695
aS'plate(5)'
p696
aS'bowl(6)'
p697
aS'fork(7)'
p698
aS'not_near(0, 1)'
p699
aS'east(0, 1)'
p700
aS'not_west(0, 1)'
p701
aS'not_south(0, 1)'
p702
aS'not_near(0, 2)'
p703
aS'east(0, 2)'
p704
aS'not_west(0, 2)'
p705
aS'south(0, 2)'
p706
aS'near(0, 4)'
p707
aS'east(0, 4)'
p708
aS'not_west(0, 4)'
p709
aS'not_south(0, 4)'
p710
aS'not_near(0, 5)'
p711
aS'east(0, 5)'
p712
aS'not_west(0, 5)'
p713
aS'not_south(0, 5)'
p714
aS'not_near(0, 6)'
p715
aS'east(0, 6)'
p716
aS'not_west(0, 6)'
p717
aS'not_south(0, 6)'
p718
aS'not_near(0, 7)'
p719
aS'east(0, 7)'
p720
aS'not_west(0, 7)'
p721
aS'south(0, 7)'
p722
aS'not_near(1, 0)'
p723
aS'not_east(1, 0)'
p724
aS'west(1, 0)'
p725
aS'south(1, 0)'
p726
aS'not_near(1, 2)'
p727
aS'not_east(1, 2)'
p728
aS'not_west(1, 2)'
p729
aS'south(1, 2)'
p730
aS'not_near(1, 4)'
p731
aS'not_east(1, 4)'
p732
aS'west(1, 4)'
p733
aS'south(1, 4)'
p734
aS'not_near(1, 5)'
p735
aS'east(1, 5)'
p736
aS'not_west(1, 5)'
p737
aS'not_south(1, 5)'
p738
aS'not_near(1, 6)'
p739
aS'east(1, 6)'
p740
aS'not_west(1, 6)'
p741
aS'not_south(1, 6)'
p742
aS'not_near(1, 7)'
p743
aS'not_east(1, 7)'
p744
aS'west(1, 7)'
p745
aS'south(1, 7)'
p746
aS'not_near(2, 0)'
p747
aS'not_east(2, 0)'
p748
aS'west(2, 0)'
p749
aS'not_south(2, 0)'
p750
aS'not_near(2, 1)'
p751
aS'not_east(2, 1)'
p752
aS'not_west(2, 1)'
p753
aS'not_south(2, 1)'
p754
aS'not_near(2, 4)'
p755
aS'not_east(2, 4)'
p756
aS'west(2, 4)'
p757
aS'not_south(2, 4)'
p758
aS'not_near(2, 5)'
p759
aS'east(2, 5)'
p760
aS'not_west(2, 5)'
p761
aS'not_south(2, 5)'
p762
aS'not_near(2, 6)'
p763
aS'east(2, 6)'
p764
aS'not_west(2, 6)'
p765
aS'not_south(2, 6)'
p766
aS'not_near(2, 7)'
p767
aS'not_east(2, 7)'
p768
aS'west(2, 7)'
p769
aS'not_south(2, 7)'
p770
aS'near(4, 0)'
p771
aS'not_east(4, 0)'
p772
aS'west(4, 0)'
p773
aS'not_south(4, 0)'
p774
aS'not_near(4, 1)'
p775
aS'east(4, 1)'
p776
aS'not_west(4, 1)'
p777
aS'not_south(4, 1)'
p778
aS'not_near(4, 2)'
p779
aS'east(4, 2)'
p780
aS'not_west(4, 2)'
p781
aS'south(4, 2)'
p782
aS'not_near(4, 5)'
p783
aS'east(4, 5)'
p784
aS'not_west(4, 5)'
p785
aS'not_south(4, 5)'
p786
aS'not_near(4, 6)'
p787
aS'east(4, 6)'
p788
aS'not_west(4, 6)'
p789
aS'not_south(4, 6)'
p790
aS'near(4, 7)'
p791
aS'not_east(4, 7)'
p792
aS'not_west(4, 7)'
p793
aS'south(4, 7)'
p794
aS'not_near(5, 0)'
p795
aS'not_east(5, 0)'
p796
aS'west(5, 0)'
p797
aS'south(5, 0)'
p798
aS'not_near(5, 1)'
p799
aS'not_east(5, 1)'
p800
aS'west(5, 1)'
p801
aS'not_south(5, 1)'
p802
aS'not_near(5, 2)'
p803
aS'not_east(5, 2)'
p804
aS'west(5, 2)'
p805
aS'south(5, 2)'
p806
aS'not_near(5, 4)'
p807
aS'not_east(5, 4)'
p808
aS'west(5, 4)'
p809
aS'south(5, 4)'
p810
aS'near(5, 6)'
p811
aS'east(5, 6)'
p812
aS'not_west(5, 6)'
p813
aS'not_south(5, 6)'
p814
aS'not_near(5, 7)'
p815
aS'not_east(5, 7)'
p816
aS'west(5, 7)'
p817
aS'south(5, 7)'
p818
aS'not_near(6, 0)'
p819
aS'not_east(6, 0)'
p820
aS'west(6, 0)'
p821
aS'south(6, 0)'
p822
aS'not_near(6, 1)'
p823
aS'not_east(6, 1)'
p824
aS'west(6, 1)'
p825
aS'not_south(6, 1)'
p826
aS'not_near(6, 2)'
p827
aS'not_east(6, 2)'
p828
aS'west(6, 2)'
p829
aS'south(6, 2)'
p830
aS'not_near(6, 4)'
p831
aS'not_east(6, 4)'
p832
aS'west(6, 4)'
p833
aS'south(6, 4)'
p834
aS'near(6, 5)'
p835
aS'not_east(6, 5)'
p836
aS'west(6, 5)'
p837
aS'not_south(6, 5)'
p838
aS'not_near(6, 7)'
p839
aS'not_east(6, 7)'
p840
aS'west(6, 7)'
p841
aS'south(6, 7)'
p842
aS'not_near(7, 0)'
p843
aS'not_east(7, 0)'
p844
aS'west(7, 0)'
p845
aS'not_south(7, 0)'
p846
aS'not_near(7, 1)'
p847
aS'east(7, 1)'
p848
aS'not_west(7, 1)'
p849
aS'not_south(7, 1)'
p850
aS'not_near(7, 2)'
p851
aS'east(7, 2)'
p852
aS'not_west(7, 2)'
p853
aS'not_south(7, 2)'
p854
aS'near(7, 4)'
p855
aS'not_east(7, 4)'
p856
aS'not_west(7, 4)'
p857
aS'not_south(7, 4)'
p858
aS'not_near(7, 5)'
p859
aS'east(7, 5)'
p860
aS'not_west(7, 5)'
p861
aS'not_south(7, 5)'
p862
aS'not_near(7, 6)'
p863
aS'east(7, 6)'
p864
aS'not_west(7, 6)'
p865
aS'not_south(7, 6)'
p866
a(dp867
S'action(west, 5, 0)'
p868
(lp869
g17
aI1
asS'action(south, 4, 0)'
p870
(lp871
g17
aI1
asS'action(west, 6, 5)'
p872
(lp873
g17
aI1
asS'action(near, 4, 5)'
p874
(lp875
g17
aI1
asS'action(near, 6, 4)'
p876
(lp877
g17
aI1
asS'action(north, 7, 5)'
p878
(lp879
g17
aI1
asS'action(north, 5, 4)'
p880
(lp881
g17
aI1
asS'action(east, 4, 1)'
p882
(lp883
g17
aI1
asS'action(east, 1, 4)'
p884
(lp885
g17
aI1
asS'action(south, 2, 1)'
p886
(lp887
g17
aI1
asS'action(north, 4, 2)'
p888
(lp889
g17
aI1
asS'action(west, 1, 5)'
p890
(lp891
g17
aI1
asS'action(south, 0, 1)'
p892
(lp893
g17
aI1
asS'action(near, 5, 7)'
p894
(lp895
g17
aI1
asS'action(north, 0, 1)'
p896
(lp897
g17
aI1
asS'action(east, 2, 0)'
p898
(lp899
g17
aI1
asS'action(near, 7, 5)'
p900
(lp901
g17
aI1
asS'action(west, 0, 5)'
p902
(lp903
g17
aI1
asS'action(south, 6, 1)'
p904
(lp905
g17
aI1
asS'action(near, 1, 0)'
p906
(lp907
g17
aI1
asS'action(west, 2, 5)'
p908
(lp909
g17
aI1
asS'action(west, 5, 7)'
p910
(lp911
g17
aI1
asS'action(north, 4, 6)'
p912
(lp913
g17
aI1
asS'action(south, 4, 1)'
p914
(lp915
g17
aI1
asS'action(west, 7, 0)'
p916
(lp917
g17
aI1
asS'action(west, 4, 6)'
p918
(lp919
g17
aI1
asS'action(east, 0, 7)'
p920
(lp921
g17
aI1
asS'action(east, 6, 4)'
p922
(lp923
g17
aI1
asS'action(south, 6, 7)'
p924
(lp925
g17
aI1
asS'action(west, 6, 4)'
p926
(lp927
g17
aI1
asS'action(north, 1, 4)'
p928
(lp929
g17
aI1
asS'action(east, 6, 2)'
p930
(lp931
g17
aI1
asS'action(north, 4, 5)'
p932
(lp933
g17
aI1
asS'action(near, 4, 6)'
p934
(lp935
g17
aI1
asS'action(near, 6, 5)'
p936
(lp937
g17
aI1
asS'action(east, 4, 0)'
p938
(lp939
g17
aI1
asS'action(east, 5, 7)'
p940
(lp941
g17
aI1
asS'action(north, 6, 5)'
p942
(lp943
g17
aI1
asS'action(south, 2, 0)'
p944
(lp945
g17
aI1
asS'action(east, 4, 5)'
p946
(lp947
g17
aI1
asS'action(south, 5, 2)'
p948
(lp949
g17
aI1
asS'action(east, 1, 5)'
p950
(lp951
g17
aI1
asS'action(near, 5, 6)'
p952
(lp953
g17
aI1
asS'action(north, 7, 4)'
p954
(lp955
g17
aI1
asS'action(west, 0, 4)'
p956
(lp957
g17
aI1
asS'action(near, 2, 7)'
p958
(lp959
g17
aI1
asS'action(south, 1, 6)'
p960
(lp961
g17
aI1
asS'action(south, 5, 1)'
p962
(lp963
g17
aI1
asS'action(west, 2, 4)'
p964
(lp965
g17
aI1
asS'action(near, 7, 4)'
p966
(lp967
g17
aI1
asS'action(east, 0, 6)'
p968
(lp969
g17
aI1
asS'action(east, 7, 0)'
p970
(lp971
g17
aI1
asS'action(east, 5, 2)'
p972
(lp973
g17
aI1
asS'action(south, 7, 4)'
p974
(lp975
g17
aI1
asS'action(near, 4, 7)'
p976
(lp977
g17
aI1
asS'action(north, 1, 5)'
p978
(lp979
g17
aI1
asS'action(east, 7, 1)'
p980
(lp981
g17
aI1
asS'action(east, 6, 1)'
p982
(lp983
g17
aI1
asS'action(north, 6, 4)'
p984
(lp985
g17
aI1
asS'action(north, 5, 6)'
p986
(lp987
g17
aI1
asS'action(east, 7, 2)'
p988
(lp989
g17
aI1
asS'action(south, 2, 7)'
p990
(lp991
g17
aI1
asS'action(west, 5, 6)'
p992
(lp993
g17
aI1
asS'action(near, 6, 2)'
p994
(lp995
g17
aI1
asS'action(north, 0, 7)'
p996
(lp997
g17
aI1
asS'action(east, 7, 6)'
p998
(lp999
g17
aI1
asS'action(west, 7, 1)'
p1000
(lp1001
g17
aI1
asS'action(north, 2, 5)'
p1002
(lp1003
g17
aI1
asS'action(west, 4, 5)'
p1004
(lp1005
g17
aI1
asS'action(south, 7, 5)'
p1006
(lp1007
g17
aI1
asS'action(east, 1, 2)'
p1008
(lp1009
g17
aI1
asS'action(near, 2, 4)'
p1010
(lp1011
g17
aI1
asS'action(east, 2, 6)'
p1012
(lp1013
g17
aI1
asS'action(east, 2, 7)'
p1014
(lp1015
g17
aI1
asS'action(near, 1, 6)'
p1016
(lp1017
g17
aI1
asS'action(west, 2, 7)'
p1018
(lp1019
g17
aI1
asS'action(south, 5, 6)'
p1020
(lp1021
g17
aI1
asS'action(east, 0, 1)'
p1022
(lp1023
g17
aI1
asS'action(south, 1, 0)'
p1024
(lp1025
g17
aI1
asS'action(west, 7, 5)'
p1026
(lp1027
g17
aI1
asS'action(near, 0, 4)'
p1028
(lp1029
g17
aI1
asS'action(west, 4, 2)'
p1030
(lp1031
g17
aI1
asS'action(east, 6, 0)'
p1032
(lp1033
g17
aI1
asS'action(north, 5, 7)'
p1034
(lp1035
g17
aI1
asS'action(south, 6, 5)'
p1036
(lp1037
g17
aI1
asS'action(near, 4, 0)'
p1038
(lp1039
g17
aI1
asS'action(east, 4, 2)'
p1040
(lp1041
g17
aI1
asS'action(near, 1, 7)'
p1042
(lp1043
g17
aI1
asS'action(west, 7, 2)'
p1044
(lp1045
g17
aI1
asS'action(north, 6, 7)'
p1046
(lp1047
g17
aI1
asS'action(south, 2, 6)'
p1048
(lp1049
g17
aI1
asS'action(north, 7, 0)'
p1050
(lp1051
g17
aI1
asS'action(near, 5, 4)'
p1052
(lp1053
g17
aI1
asS'action(south, 0, 2)'
p1054
(lp1055
g17
aI1
asS'action(north, 0, 6)'
p1056
(lp1057
g17
aI1
asS'action(south, 4, 5)'
p1058
(lp1059
g17
aI1
asS'action(near, 2, 5)'
p1060
(lp1061
g17
aI1
asS'action(south, 6, 4)'
p1062
(lp1063
g17
aI1
asS'action(west, 0, 2)'
p1064
(lp1065
g17
aI1
asS'action(north, 2, 4)'
p1066
(lp1067
g17
aI1
asS'action(west, 5, 1)'
p1068
(lp1069
g17
aI1
asS'action(east, 5, 0)'
p1070
(lp1071
g17
aI1
asS'action(west, 2, 6)'
p1072
(lp1073
g17
aI1
asS'action(south, 7, 6)'
p1074
(lp1075
g17
aI1
asS'action(north, 0, 2)'
p1076
(lp1077
g17
aI1
asS'action(east, 2, 5)'
p1078
(lp1079
g17
aI1
asS'action(west, 6, 7)'
p1080
(lp1081
g17
aI1
asS'action(north, 1, 7)'
p1082
(lp1083
g17
aI1
asS'action(near, 0, 5)'
p1084
(lp1085
g17
aI1
asS'action(west, 1, 7)'
p1086
(lp1087
g17
aI1
asS'action(south, 4, 2)'
p1088
(lp1089
g17
aI1
asS'action(west, 7, 6)'
p1090
(lp1091
g17
aI1
asS'action(west, 5, 2)'
p1092
(lp1093
g17
aI1
asS'action(near, 2, 6)'
p1094
(lp1095
g17
aI1
asS'action(near, 4, 1)'
p1096
(lp1097
g17
aI1
asS'action(west, 4, 1)'
p1098
(lp1099
g17
aI1
asS'action(east, 6, 7)'
p1100
(lp1101
g17
aI1
asS'action(south, 2, 5)'
p1102
(lp1103
g17
aI1
asS'action(south, 1, 7)'
p1104
(lp1105
g17
aI1
asS'action(west, 6, 1)'
p1106
(lp1107
g17
aI1
asS'action(north, 5, 0)'
p1108
(lp1109
g17
aI1
asS'action(east, 7, 4)'
p1110
(lp1111
g17
aI1
asS'action(north, 0, 5)'
p1112
(lp1113
g17
aI1
asS'action(south, 4, 6)'
p1114
(lp1115
g17
aI1
asg31
(lp1116
g17
aI1
asS'action(near, 1, 4)'
p1117
(lp1118
g17
aI1
asS'action(north, 2, 7)'
p1119
(lp1120
g17
aI1
asS'action(west, 0, 1)'
p1121
(lp1122
g17
aI1
asS'action(near, 6, 0)'
p1123
(lp1124
g17
aI1
asS'action(south, 0, 5)'
p1125
(lp1126
g17
aI1
asS'action(near, 7, 1)'
p1127
(lp1128
g17
aI1
asS'action(south, 5, 4)'
p1129
(lp1130
g17
aI1
asS'action(east, 2, 4)'
p1131
(lp1132
g17
aI1
asS'action(east, 1, 0)'
p1133
(lp1134
g17
aI1
asS'action(east, 5, 1)'
p1135
(lp1136
g17
aI1
asS'action(west, 2, 1)'
p1137
(lp1138
g17
aI1
asS'action(near, 0, 6)'
p1139
(lp1140
g17
aI1
asS'action(near, 2, 1)'
p1141
(lp1142
g17
aI1
asS'action(south, 5, 7)'
p1143
(lp1144
g17
aI1
asS'action(north, 1, 6)'
p1145
(lp1146
g17
aI1
asS'action(north, 7, 1)'
p1147
(lp1148
g17
aI1
asS'action(west, 1, 2)'
p1149
(lp1150
g17
aI1
asS'action(west, 6, 0)'
p1151
(lp1152
g17
aI1
asS'action(north, 1, 0)'
p1153
(lp1154
g17
aI1
asS'action(east, 7, 5)'
p1155
(lp1156
g17
aI1
asS'action(near, 7, 6)'
p1157
(lp1158
g17
aI1
asS'action(north, 6, 1)'
p1159
(lp1160
g17
aI1
asS'action(south, 2, 4)'
p1161
(lp1162
g17
aI1
asS'action(near, 6, 1)'
p1163
(lp1164
g17
aI1
asS'action(west, 1, 4)'
p1165
(lp1166
g17
aI1
asS'action(north, 0, 4)'
p1167
(lp1168
g17
aI1
asS'action(near, 5, 2)'
p1169
(lp1170
g17
aI1
asS'action(south, 0, 4)'
p1171
(lp1172
g17
aI1
asS'action(north, 2, 6)'
p1173
(lp1174
g17
aI1
asS'action(north, 5, 2)'
p1175
(lp1176
g17
aI1
asS'action(near, 7, 0)'
p1177
(lp1178
g17
aI1
asS'action(south, 7, 0)'
p1179
(lp1180
g17
aI1
asS'action(south, 5, 0)'
p1181
(lp1182
g17
aI1
asS'action(west, 2, 0)'
p1183
(lp1184
g17
aI1
asS'action(east, 0, 2)'
p1185
(lp1186
g17
aI1
asS'action(west, 1, 0)'
p1187
(lp1188
g17
aI1
asS'action(south, 6, 0)'
p1189
(lp1190
g17
aI1
asS'action(near, 0, 7)'
p1191
(lp1192
g17
aI1
asS'action(near, 1, 5)'
p1193
(lp1194
g22
aI210
asS'action(east, 5, 6)'
p1195
(lp1196
g17
aI1
asS'action(west, 7, 4)'
p1197
(lp1198
g17
aI1
asS'action(near, 0, 1)'
p1199
(lp1200
g17
aI1
asS'action(east, 4, 7)'
p1201
(lp1202
g17
aI1
asS'action(south, 1, 5)'
p1203
(lp1204
g17
aI1
asS'action(south, 1, 2)'
p1205
(lp1206
g17
aI1
asS'action(north, 6, 0)'
p1207
(lp1208
g17
aI1
asS'action(south, 0, 7)'
p1209
(lp1210
g17
aI1
asS'action(near, 5, 1)'
p1211
(lp1212
g17
aI1
asS'action(near, 2, 0)'
p1213
(lp1214
g17
aI1
asS'action(north, 7, 2)'
p1215
(lp1216
g17
aI1
asS'action(south, 7, 1)'
p1217
(lp1218
g17
aI1
asS'action(east, 1, 6)'
p1219
(lp1220
g17
aI1
asS'action(north, 6, 2)'
p1221
(lp1222
g17
aI1
asS'action(north, 2, 1)'
p1223
(lp1224
g17
aI1
asS'action(west, 0, 7)'
p1225
(lp1226
g17
aI1
asS'action(north, 7, 6)'
p1227
(lp1228
g17
aI1
asS'action(near, 1, 2)'
p1229
(lp1230
g17
aI1
asS'action(near, 4, 2)'
p1231
(lp1232
g17
aI1
asS'action(west, 4, 0)'
p1233
(lp1234
g17
aI1
asS'action(east, 0, 5)'
p1235
(lp1236
g17
aI1
asS'action(west, 1, 6)'
p1237
(lp1238
g17
aI1
asS'action(west, 6, 2)'
p1239
(lp1240
g17
aI1
asS'action(near, 0, 2)'
p1241
(lp1242
g17
aI1
asS'action(east, 4, 6)'
p1243
(lp1244
g17
aI1
asS'action(south, 4, 7)'
p1245
(lp1246
g17
aI1
asS'action(south, 1, 4)'
p1247
(lp1248
g17
aI1
asS'action(north, 4, 7)'
p1249
(lp1250
g17
aI1
asS'action(north, 1, 2)'
p1251
(lp1252
g17
aI1
asS'action(north, 5, 1)'
p1253
(lp1254
g17
aI1
asS'action(north, 4, 1)'
p1255
(lp1256
g17
aI1
asS'action(near, 6, 7)'
p1257
(lp1258
g17
aI1
asS'action(near, 5, 0)'
p1259
(lp1260
g17
aI1
asS'action(south, 0, 6)'
p1261
(lp1262
g17
aI1
asS'action(south, 7, 2)'
p1263
(lp1264
g17
aI1
asS'action(near, 7, 2)'
p1265
(lp1266
g17
aI1
asS'action(east, 2, 1)'
p1267
(lp1268
g17
aI1
asS'action(east, 1, 7)'
p1269
(lp1270
g17
aI1
asS'action(west, 0, 6)'
p1271
(lp1272
g17
aI1
asS'action(north, 2, 0)'
p1273
(lp1274
g17
aI1
asS'action(west, 5, 4)'
p1275
(lp1276
g17
aI1
asS'action(south, 6, 2)'
p1277
(lp1278
g17
aI1
asS'action(east, 0, 4)'
p1279
(lp1280
g17
aI1
asS'action(east, 6, 5)'
p1281
(lp1282
g17
aI1
asS'action(north, 4, 0)'
p1283
(lp1284
g17
aI1
asS'action(east, 5, 4)'
p1285
(lp1286
g17
aI1
asS'action(west, 4, 7)'
p1287
(lp1288
g17
aI1
astp1289
a((lp1290
S'cup(0)'
p1291
aS'fork(1)'
p1292
aS'cup(2)'
p1293
aS'plate(4)'
p1294
aS'plate(5)'
p1295
aS'bowl(6)'
p1296
aS'fork(7)'
p1297
aS'not_near(0, 1)'
p1298
aS'east(0, 1)'
p1299
aS'not_west(0, 1)'
p1300
aS'not_south(0, 1)'
p1301
aS'not_near(0, 2)'
p1302
aS'east(0, 2)'
p1303
aS'not_west(0, 2)'
p1304
aS'south(0, 2)'
p1305
aS'near(0, 4)'
p1306
aS'east(0, 4)'
p1307
aS'not_west(0, 4)'
p1308
aS'not_south(0, 4)'
p1309
aS'not_near(0, 5)'
p1310
aS'east(0, 5)'
p1311
aS'not_west(0, 5)'
p1312
aS'not_south(0, 5)'
p1313
aS'not_near(0, 6)'
p1314
aS'east(0, 6)'
p1315
aS'not_west(0, 6)'
p1316
aS'not_south(0, 6)'
p1317
aS'not_near(0, 7)'
p1318
aS'east(0, 7)'
p1319
aS'not_west(0, 7)'
p1320
aS'south(0, 7)'
p1321
aS'not_near(1, 0)'
p1322
aS'not_east(1, 0)'
p1323
aS'west(1, 0)'
p1324
aS'south(1, 0)'
p1325
aS'not_near(1, 2)'
p1326
aS'not_east(1, 2)'
p1327
aS'not_west(1, 2)'
p1328
aS'south(1, 2)'
p1329
aS'not_near(1, 4)'
p1330
aS'not_east(1, 4)'
p1331
aS'west(1, 4)'
p1332
aS'south(1, 4)'
p1333
aS'near(1, 5)'
p1334
aS'east(1, 5)'
p1335
aS'not_west(1, 5)'
p1336
aS'not_south(1, 5)'
p1337
aS'not_near(1, 6)'
p1338
aS'east(1, 6)'
p1339
aS'not_west(1, 6)'
p1340
aS'not_south(1, 6)'
p1341
aS'not_near(1, 7)'
p1342
aS'not_east(1, 7)'
p1343
aS'west(1, 7)'
p1344
aS'south(1, 7)'
p1345
aS'not_near(2, 0)'
p1346
aS'not_east(2, 0)'
p1347
aS'west(2, 0)'
p1348
aS'not_south(2, 0)'
p1349
aS'not_near(2, 1)'
p1350
aS'not_east(2, 1)'
p1351
aS'not_west(2, 1)'
p1352
aS'not_south(2, 1)'
p1353
aS'not_near(2, 4)'
p1354
aS'not_east(2, 4)'
p1355
aS'west(2, 4)'
p1356
aS'not_south(2, 4)'
p1357
aS'not_near(2, 5)'
p1358
aS'east(2, 5)'
p1359
aS'not_west(2, 5)'
p1360
aS'not_south(2, 5)'
p1361
aS'not_near(2, 6)'
p1362
aS'east(2, 6)'
p1363
aS'not_west(2, 6)'
p1364
aS'not_south(2, 6)'
p1365
aS'not_near(2, 7)'
p1366
aS'not_east(2, 7)'
p1367
aS'west(2, 7)'
p1368
aS'not_south(2, 7)'
p1369
aS'near(4, 0)'
p1370
aS'not_east(4, 0)'
p1371
aS'west(4, 0)'
p1372
aS'not_south(4, 0)'
p1373
aS'not_near(4, 1)'
p1374
aS'east(4, 1)'
p1375
aS'not_west(4, 1)'
p1376
aS'not_south(4, 1)'
p1377
aS'not_near(4, 2)'
p1378
aS'east(4, 2)'
p1379
aS'not_west(4, 2)'
p1380
aS'south(4, 2)'
p1381
aS'not_near(4, 5)'
p1382
aS'east(4, 5)'
p1383
aS'not_west(4, 5)'
p1384
aS'not_south(4, 5)'
p1385
aS'not_near(4, 6)'
p1386
aS'east(4, 6)'
p1387
aS'not_west(4, 6)'
p1388
aS'not_south(4, 6)'
p1389
aS'near(4, 7)'
p1390
aS'not_east(4, 7)'
p1391
aS'not_west(4, 7)'
p1392
aS'south(4, 7)'
p1393
aS'not_near(5, 0)'
p1394
aS'not_east(5, 0)'
p1395
aS'west(5, 0)'
p1396
aS'south(5, 0)'
p1397
aS'near(5, 1)'
p1398
aS'not_east(5, 1)'
p1399
aS'west(5, 1)'
p1400
aS'not_south(5, 1)'
p1401
aS'not_near(5, 2)'
p1402
aS'not_east(5, 2)'
p1403
aS'west(5, 2)'
p1404
aS'south(5, 2)'
p1405
aS'not_near(5, 4)'
p1406
aS'not_east(5, 4)'
p1407
aS'west(5, 4)'
p1408
aS'south(5, 4)'
p1409
aS'near(5, 6)'
p1410
aS'east(5, 6)'
p1411
aS'not_west(5, 6)'
p1412
aS'not_south(5, 6)'
p1413
aS'not_near(5, 7)'
p1414
aS'not_east(5, 7)'
p1415
aS'west(5, 7)'
p1416
aS'south(5, 7)'
p1417
aS'not_near(6, 0)'
p1418
aS'not_east(6, 0)'
p1419
aS'west(6, 0)'
p1420
aS'south(6, 0)'
p1421
aS'not_near(6, 1)'
p1422
aS'not_east(6, 1)'
p1423
aS'west(6, 1)'
p1424
aS'not_south(6, 1)'
p1425
aS'not_near(6, 2)'
p1426
aS'not_east(6, 2)'
p1427
aS'west(6, 2)'
p1428
aS'south(6, 2)'
p1429
aS'not_near(6, 4)'
p1430
aS'not_east(6, 4)'
p1431
aS'west(6, 4)'
p1432
aS'south(6, 4)'
p1433
aS'near(6, 5)'
p1434
aS'not_east(6, 5)'
p1435
aS'west(6, 5)'
p1436
aS'not_south(6, 5)'
p1437
aS'not_near(6, 7)'
p1438
aS'not_east(6, 7)'
p1439
aS'west(6, 7)'
p1440
aS'south(6, 7)'
p1441
aS'not_near(7, 0)'
p1442
aS'not_east(7, 0)'
p1443
aS'west(7, 0)'
p1444
aS'not_south(7, 0)'
p1445
aS'not_near(7, 1)'
p1446
aS'east(7, 1)'
p1447
aS'not_west(7, 1)'
p1448
aS'not_south(7, 1)'
p1449
aS'not_near(7, 2)'
p1450
aS'east(7, 2)'
p1451
aS'not_west(7, 2)'
p1452
aS'not_south(7, 2)'
p1453
aS'near(7, 4)'
p1454
aS'not_east(7, 4)'
p1455
aS'not_west(7, 4)'
p1456
aS'not_south(7, 4)'
p1457
aS'not_near(7, 5)'
p1458
aS'east(7, 5)'
p1459
aS'not_west(7, 5)'
p1460
aS'not_south(7, 5)'
p1461
aS'not_near(7, 6)'
p1462
aS'east(7, 6)'
p1463
aS'not_west(7, 6)'
p1464
aS'not_south(7, 6)'
p1465
a(dp1466
S'action(west, 5, 0)'
p1467
(lp1468
g17
aI1
asS'action(south, 4, 0)'
p1469
(lp1470
g17
aI1
asS'action(west, 6, 5)'
p1471
(lp1472
g17
aI1
asS'action(near, 4, 5)'
p1473
(lp1474
g17
aI1
asS'action(near, 6, 4)'
p1475
(lp1476
g17
aI1
asS'action(north, 7, 5)'
p1477
(lp1478
g17
aI1
asS'action(north, 5, 4)'
p1479
(lp1480
g17
aI1
asS'action(east, 4, 1)'
p1481
(lp1482
g17
aI1
asS'action(east, 1, 4)'
p1483
(lp1484
g17
aI1
asS'action(south, 2, 1)'
p1485
(lp1486
g17
aI1
asS'action(north, 4, 2)'
p1487
(lp1488
g17
aI1
asS'action(west, 1, 5)'
p1489
(lp1490
g17
aI1
asS'action(south, 0, 1)'
p1491
(lp1492
g17
aI1
asS'action(near, 5, 7)'
p1493
(lp1494
g17
aI1
asS'action(north, 0, 1)'
p1495
(lp1496
g17
aI1
asS'action(east, 2, 0)'
p1497
(lp1498
g17
aI1
asS'action(near, 7, 5)'
p1499
(lp1500
g17
aI1
asS'action(west, 0, 5)'
p1501
(lp1502
g17
aI1
asS'action(south, 6, 1)'
p1503
(lp1504
g17
aI1
asS'action(near, 1, 0)'
p1505
(lp1506
g17
aI1
asS'action(west, 2, 5)'
p1507
(lp1508
g17
aI1
asS'action(west, 5, 7)'
p1509
(lp1510
g17
aI1
asS'action(north, 4, 6)'
p1511
(lp1512
g17
aI1
asS'action(south, 4, 1)'
p1513
(lp1514
g17
aI1
asS'action(west, 7, 0)'
p1515
(lp1516
g17
aI1
asS'action(west, 4, 6)'
p1517
(lp1518
g17
aI1
asS'action(east, 0, 7)'
p1519
(lp1520
g17
aI1
asS'action(east, 6, 4)'
p1521
(lp1522
g17
aI1
asS'action(south, 6, 7)'
p1523
(lp1524
g17
aI1
asS'action(west, 6, 4)'
p1525
(lp1526
g17
aI1
asS'action(north, 1, 4)'
p1527
(lp1528
g17
aI1
asS'action(east, 6, 2)'
p1529
(lp1530
g17
aI1
asS'action(north, 4, 5)'
p1531
(lp1532
g17
aI1
asS'action(near, 4, 6)'
p1533
(lp1534
g17
aI1
asS'action(near, 6, 5)'
p1535
(lp1536
g17
aI1
asS'action(east, 4, 0)'
p1537
(lp1538
g17
aI1
asS'action(east, 5, 7)'
p1539
(lp1540
g17
aI1
asS'action(north, 6, 5)'
p1541
(lp1542
g17
aI1
asS'action(south, 2, 0)'
p1543
(lp1544
g17
aI1
asS'action(east, 4, 5)'
p1545
(lp1546
g17
aI1
asS'action(south, 5, 2)'
p1547
(lp1548
g17
aI1
asS'action(east, 1, 5)'
p1549
(lp1550
g17
aI1
asS'action(near, 5, 6)'
p1551
(lp1552
g17
aI1
asS'action(north, 7, 4)'
p1553
(lp1554
g17
aI1
asS'action(west, 0, 4)'
p1555
(lp1556
g17
aI1
asS'action(near, 2, 7)'
p1557
(lp1558
g17
aI1
asS'action(south, 1, 6)'
p1559
(lp1560
g17
aI1
asS'action(south, 5, 1)'
p1561
(lp1562
g17
aI1
asS'action(west, 2, 4)'
p1563
(lp1564
g17
aI1
asS'action(near, 7, 4)'
p1565
(lp1566
g17
aI1
asS'action(east, 0, 6)'
p1567
(lp1568
g17
aI1
asS'action(east, 7, 0)'
p1569
(lp1570
g17
aI1
asS'action(east, 5, 2)'
p1571
(lp1572
g17
aI1
asS'action(south, 7, 4)'
p1573
(lp1574
g17
aI1
asS'action(near, 4, 7)'
p1575
(lp1576
g17
aI1
asS'action(north, 1, 5)'
p1577
(lp1578
g17
aI1
asS'action(east, 7, 1)'
p1579
(lp1580
g17
aI1
asS'action(east, 6, 1)'
p1581
(lp1582
g17
aI1
asS'action(north, 6, 4)'
p1583
(lp1584
g17
aI1
asS'action(north, 5, 6)'
p1585
(lp1586
g17
aI1
asS'action(east, 7, 2)'
p1587
(lp1588
g17
aI1
asS'action(south, 2, 7)'
p1589
(lp1590
g17
aI1
asS'action(west, 5, 6)'
p1591
(lp1592
g17
aI1
asS'action(near, 6, 2)'
p1593
(lp1594
g17
aI1
asS'action(north, 0, 7)'
p1595
(lp1596
g17
aI1
asS'action(east, 7, 6)'
p1597
(lp1598
g17
aI1
asS'action(west, 7, 1)'
p1599
(lp1600
g17
aI1
asS'action(north, 2, 5)'
p1601
(lp1602
g17
aI1
asS'action(west, 4, 5)'
p1603
(lp1604
g17
aI1
asS'action(south, 7, 5)'
p1605
(lp1606
g17
aI1
asS'action(east, 1, 2)'
p1607
(lp1608
g17
aI1
asS'action(near, 2, 4)'
p1609
(lp1610
g17
aI1
asS'action(east, 2, 6)'
p1611
(lp1612
g17
aI1
asS'action(east, 2, 7)'
p1613
(lp1614
g17
aI1
asS'action(near, 1, 6)'
p1615
(lp1616
g17
aI1
asS'action(west, 2, 7)'
p1617
(lp1618
g17
aI1
asS'action(south, 5, 6)'
p1619
(lp1620
g17
aI1
asS'action(east, 0, 1)'
p1621
(lp1622
g17
aI1
asS'action(south, 1, 0)'
p1623
(lp1624
g17
aI1
asS'action(west, 7, 5)'
p1625
(lp1626
g17
aI1
asS'action(near, 0, 4)'
p1627
(lp1628
g17
aI1
asS'action(west, 4, 2)'
p1629
(lp1630
g17
aI1
asS'action(east, 6, 0)'
p1631
(lp1632
g17
aI1
asS'action(north, 5, 7)'
p1633
(lp1634
g17
aI1
asS'action(south, 6, 5)'
p1635
(lp1636
g17
aI1
asS'action(near, 4, 0)'
p1637
(lp1638
g17
aI1
asS'action(east, 4, 2)'
p1639
(lp1640
g17
aI1
asS'action(near, 1, 7)'
p1641
(lp1642
g17
aI1
asS'action(west, 7, 2)'
p1643
(lp1644
g17
aI1
asS'action(north, 6, 7)'
p1645
(lp1646
g17
aI1
asS'action(south, 2, 6)'
p1647
(lp1648
g17
aI1
asS'action(north, 7, 0)'
p1649
(lp1650
g17
aI1
asS'action(near, 5, 4)'
p1651
(lp1652
g17
aI1
asS'action(south, 0, 2)'
p1653
(lp1654
g17
aI1
asS'action(north, 0, 6)'
p1655
(lp1656
g17
aI1
asS'action(south, 4, 5)'
p1657
(lp1658
g17
aI1
asS'action(near, 2, 5)'
p1659
(lp1660
g17
aI1
asS'action(south, 6, 4)'
p1661
(lp1662
g17
aI1
asS'action(west, 0, 2)'
p1663
(lp1664
g17
aI1
asS'action(north, 2, 4)'
p1665
(lp1666
g17
aI1
asS'action(west, 5, 1)'
p1667
(lp1668
g17
aI1
asS'action(east, 5, 0)'
p1669
(lp1670
g17
aI1
asS'action(west, 2, 6)'
p1671
(lp1672
g17
aI1
asS'action(south, 7, 6)'
p1673
(lp1674
g17
aI1
asS'action(north, 0, 2)'
p1675
(lp1676
g17
aI1
asS'action(east, 2, 5)'
p1677
(lp1678
g17
aI1
asS'action(west, 6, 7)'
p1679
(lp1680
g17
aI1
asS'action(north, 1, 7)'
p1681
(lp1682
g17
aI1
asS'action(near, 0, 5)'
p1683
(lp1684
g17
aI1
asS'action(west, 1, 7)'
p1685
(lp1686
g17
aI1
asS'action(south, 4, 2)'
p1687
(lp1688
g17
aI1
asS'action(west, 7, 6)'
p1689
(lp1690
g17
aI1
asS'action(west, 5, 2)'
p1691
(lp1692
g17
aI1
asS'action(near, 2, 6)'
p1693
(lp1694
g17
aI1
asS'action(near, 4, 1)'
p1695
(lp1696
g17
aI1
asS'action(west, 4, 1)'
p1697
(lp1698
g17
aI1
asS'action(east, 6, 7)'
p1699
(lp1700
g17
aI1
asS'action(south, 2, 5)'
p1701
(lp1702
g17
aI1
asS'action(south, 1, 7)'
p1703
(lp1704
g17
aI1
asS'action(west, 6, 1)'
p1705
(lp1706
g17
aI1
asS'action(north, 5, 0)'
p1707
(lp1708
g17
aI1
asS'action(east, 7, 4)'
p1709
(lp1710
g17
aI1
asS'action(north, 0, 5)'
p1711
(lp1712
g17
aI1
asS'action(south, 4, 6)'
p1713
(lp1714
g17
aI1
asg31
(lp1715
g22
aI210
asS'action(near, 1, 4)'
p1716
(lp1717
g17
aI1
asS'action(north, 2, 7)'
p1718
(lp1719
g17
aI1
asS'action(west, 0, 1)'
p1720
(lp1721
g17
aI1
asS'action(near, 6, 0)'
p1722
(lp1723
g17
aI1
asS'action(south, 0, 5)'
p1724
(lp1725
g17
aI1
asS'action(near, 7, 1)'
p1726
(lp1727
g17
aI1
asS'action(south, 5, 4)'
p1728
(lp1729
g17
aI1
asS'action(east, 2, 4)'
p1730
(lp1731
g17
aI1
asS'action(east, 1, 0)'
p1732
(lp1733
g17
aI1
asS'action(east, 5, 1)'
p1734
(lp1735
g17
aI1
asS'action(west, 2, 1)'
p1736
(lp1737
g17
aI1
asS'action(near, 0, 6)'
p1738
(lp1739
g17
aI1
asS'action(near, 2, 1)'
p1740
(lp1741
g17
aI1
asS'action(south, 5, 7)'
p1742
(lp1743
g17
aI1
asS'action(north, 1, 6)'
p1744
(lp1745
g17
aI1
asS'action(north, 7, 1)'
p1746
(lp1747
g17
aI1
asS'action(west, 1, 2)'
p1748
(lp1749
g17
aI1
asS'action(west, 6, 0)'
p1750
(lp1751
g17
aI1
asS'action(north, 1, 0)'
p1752
(lp1753
g17
aI1
asS'action(east, 7, 5)'
p1754
(lp1755
g17
aI1
asS'action(near, 7, 6)'
p1756
(lp1757
g17
aI1
asS'action(north, 6, 1)'
p1758
(lp1759
g17
aI1
asS'action(south, 2, 4)'
p1760
(lp1761
g17
aI1
asS'action(near, 6, 1)'
p1762
(lp1763
g17
aI1
asS'action(west, 1, 4)'
p1764
(lp1765
g17
aI1
asS'action(north, 0, 4)'
p1766
(lp1767
g17
aI1
asS'action(near, 5, 2)'
p1768
(lp1769
g17
aI1
asS'action(south, 0, 4)'
p1770
(lp1771
g17
aI1
asS'action(north, 2, 6)'
p1772
(lp1773
g17
aI1
asS'action(north, 5, 2)'
p1774
(lp1775
g17
aI1
asS'action(near, 7, 0)'
p1776
(lp1777
g17
aI1
asS'action(south, 7, 0)'
p1778
(lp1779
g17
aI1
asS'action(south, 5, 0)'
p1780
(lp1781
g17
aI1
asS'action(west, 2, 0)'
p1782
(lp1783
g17
aI1
asS'action(east, 0, 2)'
p1784
(lp1785
g17
aI1
asS'action(west, 1, 0)'
p1786
(lp1787
g17
aI1
asS'action(south, 6, 0)'
p1788
(lp1789
g17
aI1
asS'action(near, 0, 7)'
p1790
(lp1791
g17
aI1
asS'action(near, 1, 5)'
p1792
(lp1793
g17
aI1
asS'action(east, 5, 6)'
p1794
(lp1795
g17
aI1
asS'action(west, 7, 4)'
p1796
(lp1797
g17
aI1
asS'action(near, 0, 1)'
p1798
(lp1799
g17
aI1
asS'action(east, 4, 7)'
p1800
(lp1801
g17
aI1
asS'action(south, 1, 5)'
p1802
(lp1803
g17
aI1
asS'action(south, 1, 2)'
p1804
(lp1805
g17
aI1
asS'action(north, 6, 0)'
p1806
(lp1807
g17
aI1
asS'action(south, 0, 7)'
p1808
(lp1809
g17
aI1
asS'action(near, 5, 1)'
p1810
(lp1811
g17
aI1
asS'action(near, 2, 0)'
p1812
(lp1813
g17
aI1
asS'action(north, 7, 2)'
p1814
(lp1815
g17
aI1
asS'action(south, 7, 1)'
p1816
(lp1817
g17
aI1
asS'action(east, 1, 6)'
p1818
(lp1819
g17
aI1
asS'action(north, 6, 2)'
p1820
(lp1821
g17
aI1
asS'action(north, 2, 1)'
p1822
(lp1823
g17
aI1
asS'action(west, 0, 7)'
p1824
(lp1825
g17
aI1
asS'action(north, 7, 6)'
p1826
(lp1827
g17
aI1
asS'action(near, 1, 2)'
p1828
(lp1829
g17
aI1
asS'action(near, 4, 2)'
p1830
(lp1831
g17
aI1
asS'action(west, 4, 0)'
p1832
(lp1833
g17
aI1
asS'action(east, 0, 5)'
p1834
(lp1835
g17
aI1
asS'action(west, 1, 6)'
p1836
(lp1837
g17
aI1
asS'action(west, 6, 2)'
p1838
(lp1839
g17
aI1
asS'action(near, 0, 2)'
p1840
(lp1841
g17
aI1
asS'action(east, 4, 6)'
p1842
(lp1843
g17
aI1
asS'action(south, 4, 7)'
p1844
(lp1845
g17
aI1
asS'action(south, 1, 4)'
p1846
(lp1847
g17
aI1
asS'action(north, 4, 7)'
p1848
(lp1849
g17
aI1
asS'action(north, 1, 2)'
p1850
(lp1851
g17
aI1
asS'action(north, 5, 1)'
p1852
(lp1853
g17
aI1
asS'action(north, 4, 1)'
p1854
(lp1855
g17
aI1
asS'action(near, 6, 7)'
p1856
(lp1857
g17
aI1
asS'action(near, 5, 0)'
p1858
(lp1859
g17
aI1
asS'action(south, 0, 6)'
p1860
(lp1861
g17
aI1
asS'action(south, 7, 2)'
p1862
(lp1863
g17
aI1
asS'action(near, 7, 2)'
p1864
(lp1865
g17
aI1
asS'action(east, 2, 1)'
p1866
(lp1867
g17
aI1
asS'action(east, 1, 7)'
p1868
(lp1869
g17
aI1
asS'action(west, 0, 6)'
p1870
(lp1871
g17
aI1
asS'action(north, 2, 0)'
p1872
(lp1873
g17
aI1
asS'action(west, 5, 4)'
p1874
(lp1875
g17
aI1
asS'action(south, 6, 2)'
p1876
(lp1877
g17
aI1
asS'action(east, 0, 4)'
p1878
(lp1879
g17
aI1
asS'action(east, 6, 5)'
p1880
(lp1881
g17
aI1
asS'action(north, 4, 0)'
p1882
(lp1883
g17
aI1
asS'action(east, 5, 4)'
p1884
(lp1885
g17
aI1
asS'action(west, 4, 7)'
p1886
(lp1887
g17
aI1
astp1888
aag74
ag84
aa(lp1889
(lp1890
((lp1891
S'fork(1)'
p1892
aS'fork(3)'
p1893
aS'plate(4)'
p1894
aS'plate(5)'
p1895
aS'bowl(6)'
p1896
aS'fork(7)'
p1897
aS'plate(8)'
p1898
aS'not_near(1, 3)'
p1899
aS'east(1, 3)'
p1900
aS'not_west(1, 3)'
p1901
aS'not_south(1, 3)'
p1902
aS'not_near(1, 4)'
p1903
aS'east(1, 4)'
p1904
aS'not_west(1, 4)'
p1905
aS'south(1, 4)'
p1906
aS'not_near(1, 5)'
p1907
aS'east(1, 5)'
p1908
aS'not_west(1, 5)'
p1909
aS'south(1, 5)'
p1910
aS'not_near(1, 6)'
p1911
aS'east(1, 6)'
p1912
aS'not_west(1, 6)'
p1913
aS'south(1, 6)'
p1914
aS'near(1, 7)'
p1915
aS'not_east(1, 7)'
p1916
aS'not_west(1, 7)'
p1917
aS'south(1, 7)'
p1918
aS'not_near(1, 8)'
p1919
aS'east(1, 8)'
p1920
aS'not_west(1, 8)'
p1921
aS'not_south(1, 8)'
p1922
aS'not_near(3, 1)'
p1923
aS'not_east(3, 1)'
p1924
aS'west(3, 1)'
p1925
aS'south(3, 1)'
p1926
aS'not_near(3, 4)'
p1927
aS'not_east(3, 4)'
p1928
aS'not_west(3, 4)'
p1929
aS'south(3, 4)'
p1930
aS'not_near(3, 5)'
p1931
aS'east(3, 5)'
p1932
aS'not_west(3, 5)'
p1933
aS'south(3, 5)'
p1934
aS'not_near(3, 6)'
p1935
aS'east(3, 6)'
p1936
aS'not_west(3, 6)'
p1937
aS'south(3, 6)'
p1938
aS'not_near(3, 7)'
p1939
aS'not_east(3, 7)'
p1940
aS'west(3, 7)'
p1941
aS'south(3, 7)'
p1942
aS'not_near(3, 8)'
p1943
aS'east(3, 8)'
p1944
aS'not_west(3, 8)'
p1945
aS'south(3, 8)'
p1946
aS'not_near(4, 1)'
p1947
aS'not_east(4, 1)'
p1948
aS'west(4, 1)'
p1949
aS'not_south(4, 1)'
p1950
aS'not_near(4, 3)'
p1951
aS'not_east(4, 3)'
p1952
aS'not_west(4, 3)'
p1953
aS'not_south(4, 3)'
p1954
aS'near(4, 5)'
p1955
aS'east(4, 5)'
p1956
aS'not_west(4, 5)'
p1957
aS'not_south(4, 5)'
p1958
aS'near(4, 6)'
p1959
aS'east(4, 6)'
p1960
aS'not_west(4, 6)'
p1961
aS'south(4, 6)'
p1962
aS'not_near(4, 7)'
p1963
aS'not_east(4, 7)'
p1964
aS'west(4, 7)'
p1965
aS'not_south(4, 7)'
p1966
aS'not_near(4, 8)'
p1967
aS'east(4, 8)'
p1968
aS'not_west(4, 8)'
p1969
aS'not_south(4, 8)'
p1970
aS'not_near(5, 1)'
p1971
aS'not_east(5, 1)'
p1972
aS'west(5, 1)'
p1973
aS'not_south(5, 1)'
p1974
aS'not_near(5, 3)'
p1975
aS'not_east(5, 3)'
p1976
aS'west(5, 3)'
p1977
aS'not_south(5, 3)'
p1978
aS'near(5, 4)'
p1979
aS'not_east(5, 4)'
p1980
aS'west(5, 4)'
p1981
aS'not_south(5, 4)'
p1982
aS'near(5, 6)'
p1983
aS'not_east(5, 6)'
p1984
aS'not_west(5, 6)'
p1985
aS'south(5, 6)'
p1986
aS'not_near(5, 7)'
p1987
aS'not_east(5, 7)'
p1988
aS'west(5, 7)'
p1989
aS'not_south(5, 7)'
p1990
aS'not_near(5, 8)'
p1991
aS'east(5, 8)'
p1992
aS'not_west(5, 8)'
p1993
aS'not_south(5, 8)'
p1994
aS'not_near(6, 1)'
p1995
aS'not_east(6, 1)'
p1996
aS'west(6, 1)'
p1997
aS'not_south(6, 1)'
p1998
aS'not_near(6, 3)'
p1999
aS'not_east(6, 3)'
p2000
aS'west(6, 3)'
p2001
aS'not_south(6, 3)'
p2002
aS'near(6, 4)'
p2003
aS'not_east(6, 4)'
p2004
aS'west(6, 4)'
p2005
aS'not_south(6, 4)'
p2006
aS'near(6, 5)'
p2007
aS'not_east(6, 5)'
p2008
aS'not_west(6, 5)'
p2009
aS'not_south(6, 5)'
p2010
aS'not_near(6, 7)'
p2011
aS'not_east(6, 7)'
p2012
aS'west(6, 7)'
p2013
aS'not_south(6, 7)'
p2014
aS'not_near(6, 8)'
p2015
aS'east(6, 8)'
p2016
aS'not_west(6, 8)'
p2017
aS'not_south(6, 8)'
p2018
aS'near(7, 1)'
p2019
aS'not_east(7, 1)'
p2020
aS'not_west(7, 1)'
p2021
aS'not_south(7, 1)'
p2022
aS'not_near(7, 3)'
p2023
aS'east(7, 3)'
p2024
aS'not_west(7, 3)'
p2025
aS'not_south(7, 3)'
p2026
aS'not_near(7, 4)'
p2027
aS'east(7, 4)'
p2028
aS'not_west(7, 4)'
p2029
aS'south(7, 4)'
p2030
aS'not_near(7, 5)'
p2031
aS'east(7, 5)'
p2032
aS'not_west(7, 5)'
p2033
aS'south(7, 5)'
p2034
aS'not_near(7, 6)'
p2035
aS'east(7, 6)'
p2036
aS'not_west(7, 6)'
p2037
aS'south(7, 6)'
p2038
aS'not_near(7, 8)'
p2039
aS'east(7, 8)'
p2040
aS'not_west(7, 8)'
p2041
aS'not_south(7, 8)'
p2042
aS'not_near(8, 1)'
p2043
aS'not_east(8, 1)'
p2044
aS'west(8, 1)'
p2045
aS'not_south(8, 1)'
p2046
aS'not_near(8, 3)'
p2047
aS'not_east(8, 3)'
p2048
aS'west(8, 3)'
p2049
aS'not_south(8, 3)'
p2050
aS'not_near(8, 4)'
p2051
aS'not_east(8, 4)'
p2052
aS'west(8, 4)'
p2053
aS'south(8, 4)'
p2054
aS'not_near(8, 5)'
p2055
aS'not_east(8, 5)'
p2056
aS'west(8, 5)'
p2057
aS'south(8, 5)'
p2058
aS'not_near(8, 6)'
p2059
aS'not_east(8, 6)'
p2060
aS'west(8, 6)'
p2061
aS'south(8, 6)'
p2062
aS'not_near(8, 7)'
p2063
aS'not_east(8, 7)'
p2064
aS'west(8, 7)'
p2065
aS'south(8, 7)'
p2066
a(dp2067
S'action(north, 1, 3)'
p2068
(lp2069
g17
aI1
asS'action(north, 8, 6)'
p2070
(lp2071
g17
aI1
asS'action(west, 6, 5)'
p2072
(lp2073
g17
aI1
asS'action(near, 4, 5)'
p2074
(lp2075
g17
aI1
asS'action(near, 6, 4)'
p2076
(lp2077
g17
aI1
asS'action(east, 6, 3)'
p2078
(lp2079
g17
aI1
asS'action(south, 6, 8)'
p2080
(lp2081
g17
aI1
asS'action(north, 5, 4)'
p2082
(lp2083
g17
aI1
asS'action(east, 4, 1)'
p2084
(lp2085
g17
aI1
asS'action(east, 8, 7)'
p2086
(lp2087
g17
aI1
asS'action(south, 3, 7)'
p2088
(lp2089
g17
aI1
asS'action(east, 3, 5)'
p2090
(lp2091
g17
aI1
asS'action(east, 1, 4)'
p2092
(lp2093
g17
aI1
asS'action(near, 1, 8)'
p2094
(lp2095
g17
aI1
asS'action(west, 4, 1)'
p2096
(lp2097
g17
aI1
asS'action(west, 8, 3)'
p2098
(lp2099
g17
aI1
asS'action(near, 5, 7)'
p2100
(lp2101
g17
aI1
asS'action(south, 5, 8)'
p2102
(lp2103
g17
aI1
asS'action(west, 1, 3)'
p2104
(lp2105
g17
aI1
asS'action(west, 4, 5)'
p2106
(lp2107
g17
aI1
asS'action(near, 7, 5)'
p2108
(lp2109
g17
aI1
asS'action(south, 6, 1)'
p2110
(lp2111
g17
aI1
asS'action(south, 8, 4)'
p2112
(lp2113
g17
aI1
asS'action(west, 5, 7)'
p2114
(lp2115
g17
aI1
asS'action(north, 4, 6)'
p2116
(lp2117
g17
aI1
asS'action(near, 8, 1)'
p2118
(lp2119
g17
aI1
asS'action(east, 5, 3)'
p2120
(lp2121
g17
aI1
asS'action(west, 3, 7)'
p2122
(lp2123
g17
aI1
asS'action(east, 6, 4)'
p2124
(lp2125
g17
aI1
asS'action(south, 6, 7)'
p2126
(lp2127
g17
aI1
asS'action(west, 6, 4)'
p2128
(lp2129
g17
aI1
asS'action(south, 5, 6)'
p2130
(lp2131
g17
aI1
asS'action(north, 1, 4)'
p2132
(lp2133
g17
aI1
asS'action(east, 8, 6)'
p2134
(lp2135
g17
aI1
asS'action(north, 4, 5)'
p2136
(lp2137
g17
aI1
asS'action(near, 4, 6)'
p2138
(lp2139
g17
aI1
asS'action(near, 6, 5)'
p2140
(lp2141
g17
aI1
asS'action(south, 8, 3)'
p2142
(lp2143
g17
aI1
asS'action(east, 7, 1)'
p2144
(lp2145
g17
aI1
asS'action(west, 8, 7)'
p2146
(lp2147
g17
aI1
asS'action(north, 6, 5)'
p2148
(lp2149
g17
aI1
asS'action(east, 7, 4)'
p2150
(lp2151
g17
aI1
asS'action(east, 3, 6)'
p2152
(lp2153
g17
aI1
asS'action(east, 1, 5)'
p2154
(lp2155
g17
aI1
asS'action(near, 5, 6)'
p2156
(lp2157
g17
aI1
asS'action(south, 7, 3)'
p2158
(lp2159
g17
aI1
asS'action(east, 4, 8)'
p2160
(lp2161
g17
aI1
asS'action(south, 1, 6)'
p2162
(lp2163
g17
aI1
asS'action(south, 7, 4)'
p2164
(lp2165
g17
aI1
asS'action(south, 4, 8)'
p2166
(lp2167
g17
aI1
asS'action(near, 7, 4)'
p2168
(lp2169
g22
aI104
asS'action(west, 1, 4)'
p2170
(lp2171
g17
aI1
asS'action(near, 1, 7)'
p2172
(lp2173
g17
aI1
asg31
(lp2174
g17
aI1
asS'action(south, 3, 8)'
p2175
(lp2176
g17
aI1
asS'action(west, 7, 3)'
p2177
(lp2178
g17
aI1
asS'action(east, 1, 8)'
p2179
(lp2180
g17
aI1
asS'action(near, 4, 7)'
p2181
(lp2182
g17
aI1
asS'action(west, 4, 3)'
p2183
(lp2184
g17
aI1
asS'action(north, 1, 5)'
p2185
(lp2186
g17
aI1
asS'action(east, 6, 1)'
p2187
(lp2188
g17
aI1
asS'action(east, 8, 1)'
p2189
(lp2190
g17
aI1
asS'action(north, 6, 4)'
p2191
(lp2192
g17
aI1
asS'action(east, 3, 7)'
p2193
(lp2194
g17
aI1
asS'action(west, 5, 8)'
p2195
(lp2196
g17
aI1
asS'action(north, 5, 6)'
p2197
(lp2198
g17
aI1
asS'action(east, 4, 3)'
p2199
(lp2200
g17
aI1
asS'action(west, 5, 6)'
p2201
(lp2202
g17
aI1
asS'action(north, 8, 3)'
p2203
(lp2204
g17
aI1
asS'action(north, 7, 6)'
p2205
(lp2206
g17
aI1
asS'action(east, 7, 6)'
p2207
(lp2208
g17
aI1
asS'action(south, 3, 1)'
p2209
(lp2210
g17
aI1
asS'action(west, 7, 1)'
p2211
(lp2212
g22
aI104
asS'action(west, 3, 4)'
p2213
(lp2214
g17
aI1
asS'action(south, 7, 5)'
p2215
(lp2216
g17
aI1
asS'action(west, 1, 5)'
p2217
(lp2218
g17
aI1
asS'action(near, 8, 3)'
p2219
(lp2220
g17
aI1
asS'action(south, 5, 1)'
p2221
(lp2222
g17
aI1
asS'action(near, 1, 6)'
p2223
(lp2224
g17
aI1
asS'action(west, 3, 5)'
p2225
(lp2226
g17
aI1
asS'action(north, 3, 8)'
p2227
(lp2228
g17
aI1
asS'action(south, 4, 3)'
p2229
(lp2230
g17
aI1
asS'action(west, 7, 5)'
p2231
(lp2232
g17
aI1
asS'action(south, 8, 5)'
p2233
(lp2234
g17
aI1
asS'action(south, 6, 5)'
p2235
(lp2236
g17
aI1
asS'action(north, 4, 3)'
p2237
(lp2238
g17
aI1
asS'action(south, 7, 1)'
p2239
(lp2240
g17
aI1
asS'action(east, 7, 3)'
p2241
(lp2242
g17
aI1
asS'action(north, 5, 7)'
p2243
(lp2244
g17
aI1
asS'action(east, 5, 8)'
p2245
(lp2246
g17
aI1
asS'action(west, 8, 5)'
p2247
(lp2248
g17
aI1
asS'action(north, 6, 7)'
p2249
(lp2250
g17
aI1
asS'action(near, 6, 3)'
p2251
(lp2252
g17
aI1
asS'action(near, 5, 4)'
p2253
(lp2254
g17
aI1
asS'action(south, 4, 5)'
p2255
(lp2256
g17
aI1
asS'action(south, 3, 6)'
p2257
(lp2258
g17
aI1
asS'action(near, 7, 6)'
p2259
(lp2260
g17
aI1
asS'action(near, 1, 3)'
p2261
(lp2262
g17
aI1
asS'action(north, 3, 1)'
p2263
(lp2264
g17
aI1
asS'action(east, 1, 3)'
p2265
(lp2266
g17
aI1
asS'action(near, 1, 5)'
p2267
(lp2268
g17
aI1
asS'action(north, 8, 5)'
p2269
(lp2270
g17
aI1
asS'action(south, 7, 6)'
p2271
(lp2272
g17
aI1
asS'action(south, 8, 1)'
p2273
(lp2274
g17
aI1
asS'action(south, 8, 7)'
p2275
(lp2276
g17
aI1
asS'action(west, 1, 6)'
p2277
(lp2278
g17
aI1
asS'action(near, 8, 4)'
p2279
(lp2280
g17
aI1
asS'action(west, 6, 7)'
p2281
(lp2282
g17
aI1
asS'action(north, 1, 7)'
p2283
(lp2284
g17
aI1
asS'action(south, 1, 3)'
p2285
(lp2286
g17
aI1
asS'action(west, 1, 7)'
p2287
(lp2288
g17
aI1
asS'action(near, 3, 5)'
p2289
(lp2290
g17
aI1
asS'action(west, 7, 6)'
p2291
(lp2292
g17
aI1
asS'action(east, 8, 3)'
p2293
(lp2294
g17
aI1
asS'action(east, 7, 8)'
p2295
(lp2296
g17
aI1
asS'action(near, 4, 1)'
p2297
(lp2298
g17
aI1
asS'action(near, 6, 8)'
p2299
(lp2300
g17
aI1
asS'action(east, 6, 7)'
p2301
(lp2302
g17
aI1
asS'action(south, 1, 7)'
p2303
(lp2304
g17
aI1
asS'action(west, 6, 1)'
p2305
(lp2306
g17
aI1
asS'action(east, 4, 5)'
p2307
(lp2308
g17
aI1
asS'action(north, 7, 4)'
p2309
(lp2310
g17
aI1
asS'action(south, 1, 5)'
p2311
(lp2312
g17
aI1
asS'action(east, 3, 1)'
p2313
(lp2314
g17
aI1
asS'action(east, 5, 1)'
p2315
(lp2316
g17
aI1
asS'action(south, 1, 4)'
p2317
(lp2318
g17
aI1
asS'action(west, 3, 8)'
p2319
(lp2320
g17
aI1
asS'action(near, 5, 3)'
p2321
(lp2322
g17
aI1
asS'action(south, 6, 4)'
p2323
(lp2324
g17
aI1
asS'action(north, 5, 8)'
p2325
(lp2326
g17
aI1
asS'action(near, 7, 1)'
p2327
(lp2328
g17
aI1
asS'action(south, 5, 4)'
p2329
(lp2330
g17
aI1
asS'action(east, 6, 8)'
p2331
(lp2332
g17
aI1
asS'action(near, 1, 4)'
p2333
(lp2334
g17
aI1
asS'action(near, 4, 8)'
p2335
(lp2336
g17
aI1
asS'action(south, 4, 1)'
p2337
(lp2338
g17
aI1
asS'action(north, 3, 6)'
p2339
(lp2340
g17
aI1
asS'action(near, 8, 5)'
p2341
(lp2342
g17
aI1
asS'action(south, 5, 7)'
p2343
(lp2344
g17
aI1
asS'action(north, 1, 6)'
p2345
(lp2346
g17
aI1
asS'action(near, 3, 4)'
p2347
(lp2348
g17
aI1
asS'action(east, 3, 8)'
p2349
(lp2350
g17
aI1
asS'action(north, 7, 1)'
p2351
(lp2352
g17
aI1
asS'action(north, 7, 3)'
p2353
(lp2354
g17
aI1
asS'action(east, 7, 5)'
p2355
(lp2356
g17
aI1
asS'action(north, 5, 1)'
p2357
(lp2358
g17
aI1
asS'action(north, 6, 1)'
p2359
(lp2360
g17
aI1
asS'action(north, 3, 7)'
p2361
(lp2362
g17
aI1
asS'action(near, 6, 1)'
p2363
(lp2364
g17
aI1
asS'action(north, 7, 5)'
p2365
(lp2366
g17
aI1
asS'action(south, 3, 4)'
p2367
(lp2368
g17
aI1
asS'action(west, 5, 3)'
p2369
(lp2370
g17
aI1
asS'action(north, 8, 4)'
p2371
(lp2372
g17
aI1
asS'action(near, 8, 6)'
p2373
(lp2374
g17
aI1
asS'action(south, 8, 6)'
p2375
(lp2376
g17
aI1
asS'action(near, 3, 7)'
p2377
(lp2378
g17
aI1
asS'action(north, 8, 7)'
p2379
(lp2380
g17
aI1
asS'action(east, 5, 6)'
p2381
(lp2382
g17
aI1
asS'action(west, 7, 4)'
p2383
(lp2384
g17
aI1
asS'action(east, 4, 7)'
p2385
(lp2386
g17
aI1
asS'action(near, 3, 1)'
p2387
(lp2388
g17
aI1
asS'action(north, 7, 8)'
p2389
(lp2390
g17
aI1
asS'action(west, 6, 3)'
p2391
(lp2392
g17
aI1
asS'action(near, 5, 1)'
p2393
(lp2394
g17
aI1
asS'action(east, 8, 5)'
p2395
(lp2396
g17
aI1
asS'action(west, 7, 8)'
p2397
(lp2398
g17
aI1
asS'action(near, 7, 3)'
p2399
(lp2400
g17
aI1
asS'action(west, 5, 1)'
p2401
(lp2402
g17
aI1
asS'action(west, 8, 1)'
p2403
(lp2404
g17
aI1
asS'action(north, 8, 1)'
p2405
(lp2406
g17
aI1
asS'action(north, 6, 8)'
p2407
(lp2408
g17
aI1
asS'action(east, 1, 6)'
p2409
(lp2410
g17
aI1
asS'action(near, 8, 7)'
p2411
(lp2412
g17
aI1
asS'action(south, 3, 5)'
p2413
(lp2414
g17
aI1
asS'action(west, 6, 8)'
p2415
(lp2416
g17
aI1
asS'action(north, 1, 8)'
p2417
(lp2418
g17
aI1
asS'action(north, 3, 4)'
p2419
(lp2420
g17
aI1
asS'action(near, 3, 6)'
p2421
(lp2422
g17
aI1
asS'action(east, 5, 7)'
p2423
(lp2424
g17
aI1
asS'action(west, 3, 1)'
p2425
(lp2426
g17
aI1
asS'action(west, 1, 8)'
p2427
(lp2428
g17
aI1
asS'action(south, 6, 3)'
p2429
(lp2430
g17
aI1
asS'action(north, 3, 5)'
p2431
(lp2432
g17
aI1
asS'action(north, 6, 3)'
p2433
(lp2434
g17
aI1
asS'action(south, 1, 8)'
p2435
(lp2436
g17
aI1
asS'action(south, 4, 6)'
p2437
(lp2438
g17
aI1
asS'action(east, 4, 6)'
p2439
(lp2440
g17
aI1
asS'action(north, 5, 3)'
p2441
(lp2442
g17
aI1
asS'action(south, 4, 7)'
p2443
(lp2444
g17
aI1
asS'action(near, 7, 8)'
p2445
(lp2446
g17
aI1
asS'action(north, 4, 7)'
p2447
(lp2448
g17
aI1
asS'action(east, 8, 4)'
p2449
(lp2450
g17
aI1
asS'action(north, 4, 1)'
p2451
(lp2452
g17
aI1
asS'action(near, 6, 7)'
p2453
(lp2454
g17
aI1
asS'action(south, 7, 8)'
p2455
(lp2456
g17
aI1
asS'action(south, 5, 3)'
p2457
(lp2458
g17
aI1
asS'action(near, 3, 8)'
p2459
(lp2460
g17
aI1
asS'action(east, 3, 4)'
p2461
(lp2462
g17
aI1
asS'action(west, 4, 6)'
p2463
(lp2464
g17
aI1
asS'action(west, 8, 6)'
p2465
(lp2466
g17
aI1
asS'action(east, 1, 7)'
p2467
(lp2468
g17
aI1
asS'action(north, 4, 8)'
p2469
(lp2470
g17
aI1
asS'action(west, 5, 4)'
p2471
(lp2472
g17
aI1
asS'action(west, 4, 8)'
p2473
(lp2474
g17
aI1
asS'action(near, 5, 8)'
p2475
(lp2476
g17
aI1
asS'action(west, 8, 4)'
p2477
(lp2478
g17
aI1
asS'action(east, 6, 5)'
p2479
(lp2480
g17
aI1
asS'action(west, 4, 7)'
p2481
(lp2482
g17
aI1
asS'action(east, 5, 4)'
p2483
(lp2484
g17
aI1
asS'action(near, 4, 3)'
p2485
(lp2486
g17
aI1
asS'action(west, 3, 6)'
p2487
(lp2488
g17
aI1
astp2489
a((lp2490
S'fork(1)'
p2491
aS'fork(3)'
p2492
aS'plate(4)'
p2493
aS'plate(5)'
p2494
aS'bowl(6)'
p2495
aS'fork(7)'
p2496
aS'plate(8)'
p2497
aS'not_near(1, 3)'
p2498
aS'east(1, 3)'
p2499
aS'not_west(1, 3)'
p2500
aS'not_south(1, 3)'
p2501
aS'not_near(1, 4)'
p2502
aS'east(1, 4)'
p2503
aS'not_west(1, 4)'
p2504
aS'south(1, 4)'
p2505
aS'not_near(1, 5)'
p2506
aS'east(1, 5)'
p2507
aS'not_west(1, 5)'
p2508
aS'south(1, 5)'
p2509
aS'not_near(1, 6)'
p2510
aS'east(1, 6)'
p2511
aS'not_west(1, 6)'
p2512
aS'south(1, 6)'
p2513
aS'not_near(1, 7)'
p2514
aS'east(1, 7)'
p2515
aS'not_west(1, 7)'
p2516
aS'south(1, 7)'
p2517
aS'not_near(1, 8)'
p2518
aS'east(1, 8)'
p2519
aS'not_west(1, 8)'
p2520
aS'not_south(1, 8)'
p2521
aS'not_near(3, 1)'
p2522
aS'not_east(3, 1)'
p2523
aS'west(3, 1)'
p2524
aS'south(3, 1)'
p2525
aS'not_near(3, 4)'
p2526
aS'not_east(3, 4)'
p2527
aS'not_west(3, 4)'
p2528
aS'south(3, 4)'
p2529
aS'not_near(3, 5)'
p2530
aS'east(3, 5)'
p2531
aS'not_west(3, 5)'
p2532
aS'south(3, 5)'
p2533
aS'not_near(3, 6)'
p2534
aS'east(3, 6)'
p2535
aS'not_west(3, 6)'
p2536
aS'south(3, 6)'
p2537
aS'not_near(3, 7)'
p2538
aS'not_east(3, 7)'
p2539
aS'west(3, 7)'
p2540
aS'south(3, 7)'
p2541
aS'not_near(3, 8)'
p2542
aS'east(3, 8)'
p2543
aS'not_west(3, 8)'
p2544
aS'south(3, 8)'
p2545
aS'not_near(4, 1)'
p2546
aS'not_east(4, 1)'
p2547
aS'west(4, 1)'
p2548
aS'not_south(4, 1)'
p2549
aS'not_near(4, 3)'
p2550
aS'not_east(4, 3)'
p2551
aS'not_west(4, 3)'
p2552
aS'not_south(4, 3)'
p2553
aS'near(4, 5)'
p2554
aS'east(4, 5)'
p2555
aS'not_west(4, 5)'
p2556
aS'not_south(4, 5)'
p2557
aS'near(4, 6)'
p2558
aS'east(4, 6)'
p2559
aS'not_west(4, 6)'
p2560
aS'south(4, 6)'
p2561
aS'near(4, 7)'
p2562
aS'not_east(4, 7)'
p2563
aS'west(4, 7)'
p2564
aS'not_south(4, 7)'
p2565
aS'not_near(4, 8)'
p2566
aS'east(4, 8)'
p2567
aS'not_west(4, 8)'
p2568
aS'not_south(4, 8)'
p2569
aS'not_near(5, 1)'
p2570
aS'not_east(5, 1)'
p2571
aS'west(5, 1)'
p2572
aS'not_south(5, 1)'
p2573
aS'not_near(5, 3)'
p2574
aS'not_east(5, 3)'
p2575
aS'west(5, 3)'
p2576
aS'not_south(5, 3)'
p2577
aS'near(5, 4)'
p2578
aS'not_east(5, 4)'
p2579
aS'west(5, 4)'
p2580
aS'not_south(5, 4)'
p2581
aS'near(5, 6)'
p2582
aS'not_east(5, 6)'
p2583
aS'not_west(5, 6)'
p2584
aS'south(5, 6)'
p2585
aS'not_near(5, 7)'
p2586
aS'not_east(5, 7)'
p2587
aS'west(5, 7)'
p2588
aS'south(5, 7)'
p2589
aS'not_near(5, 8)'
p2590
aS'east(5, 8)'
p2591
aS'not_west(5, 8)'
p2592
aS'not_south(5, 8)'
p2593
aS'not_near(6, 1)'
p2594
aS'not_east(6, 1)'
p2595
aS'west(6, 1)'
p2596
aS'not_south(6, 1)'
p2597
aS'not_near(6, 3)'
p2598
aS'not_east(6, 3)'
p2599
aS'west(6, 3)'
p2600
aS'not_south(6, 3)'
p2601
aS'near(6, 4)'
p2602
aS'not_east(6, 4)'
p2603
aS'west(6, 4)'
p2604
aS'not_south(6, 4)'
p2605
aS'near(6, 5)'
p2606
aS'not_east(6, 5)'
p2607
aS'not_west(6, 5)'
p2608
aS'not_south(6, 5)'
p2609
aS'not_near(6, 7)'
p2610
aS'not_east(6, 7)'
p2611
aS'west(6, 7)'
p2612
aS'not_south(6, 7)'
p2613
aS'not_near(6, 8)'
p2614
aS'east(6, 8)'
p2615
aS'not_west(6, 8)'
p2616
aS'not_south(6, 8)'
p2617
aS'not_near(7, 1)'
p2618
aS'not_east(7, 1)'
p2619
aS'west(7, 1)'
p2620
aS'not_south(7, 1)'
p2621
aS'not_near(7, 3)'
p2622
aS'east(7, 3)'
p2623
aS'not_west(7, 3)'
p2624
aS'not_south(7, 3)'
p2625
aS'near(7, 4)'
p2626
aS'east(7, 4)'
p2627
aS'not_west(7, 4)'
p2628
aS'not_south(7, 4)'
p2629
aS'not_near(7, 5)'
p2630
aS'east(7, 5)'
p2631
aS'not_west(7, 5)'
p2632
aS'not_south(7, 5)'
p2633
aS'not_near(7, 6)'
p2634
aS'east(7, 6)'
p2635
aS'not_west(7, 6)'
p2636
aS'not_south(7, 6)'
p2637
aS'not_near(7, 8)'
p2638
aS'east(7, 8)'
p2639
aS'not_west(7, 8)'
p2640
aS'not_south(7, 8)'
p2641
aS'not_near(8, 1)'
p2642
aS'not_east(8, 1)'
p2643
aS'west(8, 1)'
p2644
aS'not_south(8, 1)'
p2645
aS'not_near(8, 3)'
p2646
aS'not_east(8, 3)'
p2647
aS'west(8, 3)'
p2648
aS'not_south(8, 3)'
p2649
aS'not_near(8, 4)'
p2650
aS'not_east(8, 4)'
p2651
aS'west(8, 4)'
p2652
aS'south(8, 4)'
p2653
aS'not_near(8, 5)'
p2654
aS'not_east(8, 5)'
p2655
aS'west(8, 5)'
p2656
aS'south(8, 5)'
p2657
aS'not_near(8, 6)'
p2658
aS'not_east(8, 6)'
p2659
aS'west(8, 6)'
p2660
aS'south(8, 6)'
p2661
aS'not_near(8, 7)'
p2662
aS'not_east(8, 7)'
p2663
aS'west(8, 7)'
p2664
aS'south(8, 7)'
p2665
a(dp2666
S'action(north, 1, 3)'
p2667
(lp2668
g17
aI1
asS'action(north, 8, 6)'
p2669
(lp2670
g17
aI1
asS'action(west, 6, 5)'
p2671
(lp2672
g17
aI1
asS'action(near, 4, 5)'
p2673
(lp2674
g17
aI1
asS'action(near, 6, 4)'
p2675
(lp2676
g17
aI1
asS'action(east, 6, 3)'
p2677
(lp2678
g17
aI1
asS'action(south, 6, 8)'
p2679
(lp2680
g17
aI1
asS'action(north, 5, 4)'
p2681
(lp2682
g17
aI1
asS'action(east, 4, 1)'
p2683
(lp2684
g17
aI1
asS'action(east, 8, 7)'
p2685
(lp2686
g17
aI1
asS'action(south, 3, 7)'
p2687
(lp2688
g17
aI1
asS'action(east, 3, 5)'
p2689
(lp2690
g17
aI1
asS'action(east, 1, 4)'
p2691
(lp2692
g17
aI1
asS'action(near, 1, 8)'
p2693
(lp2694
g17
aI1
asS'action(west, 4, 1)'
p2695
(lp2696
g17
aI1
asS'action(west, 8, 3)'
p2697
(lp2698
g17
aI1
asS'action(near, 5, 7)'
p2699
(lp2700
g17
aI1
asS'action(south, 5, 8)'
p2701
(lp2702
g17
aI1
asS'action(west, 1, 3)'
p2703
(lp2704
g22
aI34
asS'action(west, 4, 5)'
p2705
(lp2706
g17
aI1
asS'action(near, 7, 5)'
p2707
(lp2708
g17
aI1
asS'action(south, 6, 1)'
p2709
(lp2710
g17
aI1
asS'action(south, 8, 4)'
p2711
(lp2712
g17
aI1
asS'action(west, 5, 7)'
p2713
(lp2714
g17
aI1
asS'action(north, 4, 6)'
p2715
(lp2716
g17
aI1
asS'action(near, 8, 1)'
p2717
(lp2718
g17
aI1
asS'action(east, 5, 3)'
p2719
(lp2720
g17
aI1
asS'action(west, 3, 7)'
p2721
(lp2722
g17
aI1
asS'action(east, 6, 4)'
p2723
(lp2724
g17
aI1
asS'action(south, 6, 7)'
p2725
(lp2726
g17
aI1
asS'action(west, 6, 4)'
p2727
(lp2728
g17
aI1
asS'action(south, 5, 6)'
p2729
(lp2730
g17
aI1
asS'action(north, 1, 4)'
p2731
(lp2732
g17
aI1
asS'action(east, 8, 6)'
p2733
(lp2734
g17
aI1
asS'action(north, 4, 5)'
p2735
(lp2736
g17
aI1
asS'action(near, 4, 6)'
p2737
(lp2738
g17
aI1
asS'action(near, 6, 5)'
p2739
(lp2740
g17
aI1
asS'action(south, 8, 3)'
p2741
(lp2742
g17
aI1
asS'action(east, 7, 1)'
p2743
(lp2744
g17
aI1
asS'action(west, 8, 7)'
p2745
(lp2746
g17
aI1
asS'action(north, 6, 5)'
p2747
(lp2748
g17
aI1
asS'action(east, 7, 4)'
p2749
(lp2750
g17
aI1
asS'action(east, 3, 6)'
p2751
(lp2752
g17
aI1
asS'action(east, 1, 5)'
p2753
(lp2754
g17
aI1
asS'action(near, 5, 6)'
p2755
(lp2756
g17
aI1
asS'action(south, 7, 3)'
p2757
(lp2758
g17
aI1
asS'action(east, 4, 8)'
p2759
(lp2760
g17
aI1
asS'action(south, 1, 6)'
p2761
(lp2762
g17
aI1
asS'action(south, 7, 4)'
p2763
(lp2764
g17
aI1
asS'action(south, 4, 8)'
p2765
(lp2766
g17
aI1
asS'action(near, 7, 4)'
p2767
(lp2768
g17
aI1
asS'action(west, 1, 4)'
p2769
(lp2770
g22
aI34
asS'action(near, 1, 7)'
p2771
(lp2772
g17
aI1
asg31
(lp2773
g17
aI1
asS'action(south, 3, 8)'
p2774
(lp2775
g17
aI1
asS'action(west, 7, 3)'
p2776
(lp2777
g17
aI1
asS'action(east, 1, 8)'
p2778
(lp2779
g17
aI1
asS'action(near, 4, 7)'
p2780
(lp2781
g17
aI1
asS'action(west, 4, 3)'
p2782
(lp2783
g17
aI1
asS'action(north, 1, 5)'
p2784
(lp2785
g17
aI1
asS'action(east, 6, 1)'
p2786
(lp2787
g17
aI1
asS'action(east, 8, 1)'
p2788
(lp2789
g17
aI1
asS'action(north, 6, 4)'
p2790
(lp2791
g17
aI1
asS'action(east, 3, 7)'
p2792
(lp2793
g17
aI1
asS'action(west, 5, 8)'
p2794
(lp2795
g17
aI1
asS'action(north, 5, 6)'
p2796
(lp2797
g17
aI1
asS'action(east, 4, 3)'
p2798
(lp2799
g17
aI1
asS'action(west, 5, 6)'
p2800
(lp2801
g17
aI1
asS'action(north, 8, 3)'
p2802
(lp2803
g17
aI1
asS'action(north, 7, 6)'
p2804
(lp2805
g17
aI1
asS'action(east, 7, 6)'
p2806
(lp2807
g17
aI1
asS'action(south, 3, 1)'
p2808
(lp2809
g17
aI1
asS'action(west, 7, 1)'
p2810
(lp2811
g17
aI1
asS'action(west, 3, 4)'
p2812
(lp2813
g17
aI1
asS'action(south, 7, 5)'
p2814
(lp2815
g17
aI1
asS'action(west, 1, 5)'
p2816
(lp2817
g22
aI34
asS'action(near, 8, 3)'
p2818
(lp2819
g17
aI1
asS'action(south, 5, 1)'
p2820
(lp2821
g17
aI1
asS'action(near, 1, 6)'
p2822
(lp2823
g17
aI1
asS'action(west, 3, 5)'
p2824
(lp2825
g17
aI1
asS'action(north, 3, 8)'
p2826
(lp2827
g17
aI1
asS'action(south, 4, 3)'
p2828
(lp2829
g17
aI1
asS'action(west, 7, 5)'
p2830
(lp2831
g17
aI1
asS'action(south, 8, 5)'
p2832
(lp2833
g17
aI1
asS'action(south, 6, 5)'
p2834
(lp2835
g17
aI1
asS'action(north, 4, 3)'
p2836
(lp2837
g17
aI1
asS'action(south, 7, 1)'
p2838
(lp2839
g17
aI1
asS'action(east, 7, 3)'
p2840
(lp2841
g17
aI1
asS'action(north, 5, 7)'
p2842
(lp2843
g17
aI1
asS'action(east, 5, 8)'
p2844
(lp2845
g17
aI1
asS'action(west, 8, 5)'
p2846
(lp2847
g17
aI1
asS'action(north, 6, 7)'
p2848
(lp2849
g17
aI1
asS'action(near, 6, 3)'
p2850
(lp2851
g17
aI1
asS'action(near, 5, 4)'
p2852
(lp2853
g17
aI1
asS'action(south, 4, 5)'
p2854
(lp2855
g17
aI1
asS'action(south, 3, 6)'
p2856
(lp2857
g17
aI1
asS'action(near, 7, 6)'
p2858
(lp2859
g17
aI1
asS'action(near, 1, 3)'
p2860
(lp2861
g17
aI1
asS'action(north, 3, 1)'
p2862
(lp2863
g17
aI1
asS'action(east, 1, 3)'
p2864
(lp2865
g17
aI1
asS'action(near, 1, 5)'
p2866
(lp2867
g22
aI34
asS'action(north, 8, 5)'
p2868
(lp2869
g17
aI1
asS'action(south, 7, 6)'
p2870
(lp2871
g17
aI1
asS'action(south, 8, 1)'
p2872
(lp2873
g17
aI1
asS'action(south, 8, 7)'
p2874
(lp2875
g17
aI1
asS'action(west, 1, 6)'
p2876
(lp2877
g22
aI34
asS'action(near, 8, 4)'
p2878
(lp2879
g17
aI1
asS'action(west, 6, 7)'
p2880
(lp2881
g17
aI1
asS'action(north, 1, 7)'
p2882
(lp2883
g17
aI1
asS'action(south, 1, 3)'
p2884
(lp2885
g17
aI1
asS'action(west, 1, 7)'
p2886
(lp2887
g22
aI34
asS'action(near, 3, 5)'
p2888
(lp2889
g17
aI1
asS'action(west, 7, 6)'
p2890
(lp2891
g17
aI1
asS'action(east, 8, 3)'
p2892
(lp2893
g17
aI1
asS'action(east, 7, 8)'
p2894
(lp2895
g17
aI1
asS'action(near, 4, 1)'
p2896
(lp2897
g17
aI1
asS'action(near, 6, 8)'
p2898
(lp2899
g17
aI1
asS'action(east, 6, 7)'
p2900
(lp2901
g17
aI1
asS'action(south, 1, 7)'
p2902
(lp2903
g17
aI1
asS'action(west, 6, 1)'
p2904
(lp2905
g17
aI1
asS'action(east, 4, 5)'
p2906
(lp2907
g17
aI1
asS'action(north, 7, 4)'
p2908
(lp2909
g17
aI1
asS'action(south, 1, 5)'
p2910
(lp2911
g17
aI1
asS'action(east, 3, 1)'
p2912
(lp2913
g17
aI1
asS'action(east, 5, 1)'
p2914
(lp2915
g17
aI1
asS'action(south, 1, 4)'
p2916
(lp2917
g17
aI1
asS'action(west, 3, 8)'
p2918
(lp2919
g17
aI1
asS'action(near, 5, 3)'
p2920
(lp2921
g17
aI1
asS'action(south, 6, 4)'
p2922
(lp2923
g17
aI1
asS'action(north, 5, 8)'
p2924
(lp2925
g17
aI1
asS'action(near, 7, 1)'
p2926
(lp2927
g17
aI1
asS'action(south, 5, 4)'
p2928
(lp2929
g17
aI1
asS'action(east, 6, 8)'
p2930
(lp2931
g17
aI1
asS'action(near, 1, 4)'
p2932
(lp2933
g17
aI1
asS'action(near, 4, 8)'
p2934
(lp2935
g17
aI1
asS'action(south, 4, 1)'
p2936
(lp2937
g17
aI1
asS'action(north, 3, 6)'
p2938
(lp2939
g17
aI1
asS'action(near, 8, 5)'
p2940
(lp2941
g17
aI1
asS'action(south, 5, 7)'
p2942
(lp2943
g17
aI1
asS'action(north, 1, 6)'
p2944
(lp2945
g17
aI1
asS'action(near, 3, 4)'
p2946
(lp2947
g17
aI1
asS'action(east, 3, 8)'
p2948
(lp2949
g17
aI1
asS'action(north, 7, 1)'
p2950
(lp2951
g17
aI1
asS'action(north, 7, 3)'
p2952
(lp2953
g17
aI1
asS'action(east, 7, 5)'
p2954
(lp2955
g17
aI1
asS'action(north, 5, 1)'
p2956
(lp2957
g17
aI1
asS'action(north, 6, 1)'
p2958
(lp2959
g17
aI1
asS'action(north, 3, 7)'
p2960
(lp2961
g17
aI1
asS'action(near, 6, 1)'
p2962
(lp2963
g17
aI1
asS'action(north, 7, 5)'
p2964
(lp2965
g17
aI1
asS'action(south, 3, 4)'
p2966
(lp2967
g17
aI1
asS'action(west, 5, 3)'
p2968
(lp2969
g17
aI1
asS'action(north, 8, 4)'
p2970
(lp2971
g17
aI1
asS'action(near, 8, 6)'
p2972
(lp2973
g17
aI1
asS'action(south, 8, 6)'
p2974
(lp2975
g17
aI1
asS'action(near, 3, 7)'
p2976
(lp2977
g17
aI1
asS'action(north, 8, 7)'
p2978
(lp2979
g17
aI1
asS'action(east, 5, 6)'
p2980
(lp2981
g17
aI1
asS'action(west, 7, 4)'
p2982
(lp2983
g17
aI1
asS'action(east, 4, 7)'
p2984
(lp2985
g17
aI1
asS'action(near, 3, 1)'
p2986
(lp2987
g17
aI1
asS'action(north, 7, 8)'
p2988
(lp2989
g17
aI1
asS'action(west, 6, 3)'
p2990
(lp2991
g17
aI1
asS'action(near, 5, 1)'
p2992
(lp2993
g17
aI1
asS'action(east, 8, 5)'
p2994
(lp2995
g17
aI1
asS'action(west, 7, 8)'
p2996
(lp2997
g17
aI1
asS'action(near, 7, 3)'
p2998
(lp2999
g17
aI1
asS'action(west, 5, 1)'
p3000
(lp3001
g17
aI1
asS'action(west, 8, 1)'
p3002
(lp3003
g17
aI1
asS'action(north, 8, 1)'
p3004
(lp3005
g17
aI1
asS'action(north, 6, 8)'
p3006
(lp3007
g17
aI1
asS'action(east, 1, 6)'
p3008
(lp3009
g17
aI1
asS'action(near, 8, 7)'
p3010
(lp3011
g17
aI1
asS'action(south, 3, 5)'
p3012
(lp3013
g17
aI1
asS'action(west, 6, 8)'
p3014
(lp3015
g17
aI1
asS'action(north, 1, 8)'
p3016
(lp3017
g17
aI1
asS'action(north, 3, 4)'
p3018
(lp3019
g17
aI1
asS'action(near, 3, 6)'
p3020
(lp3021
g17
aI1
asS'action(east, 5, 7)'
p3022
(lp3023
g17
aI1
asS'action(west, 3, 1)'
p3024
(lp3025
g17
aI1
asS'action(west, 1, 8)'
p3026
(lp3027
g17
aI1
asS'action(south, 6, 3)'
p3028
(lp3029
g17
aI1
asS'action(north, 3, 5)'
p3030
(lp3031
g17
aI1
asS'action(north, 6, 3)'
p3032
(lp3033
g17
aI1
asS'action(south, 1, 8)'
p3034
(lp3035
g17
aI1
asS'action(south, 4, 6)'
p3036
(lp3037
g17
aI1
asS'action(east, 4, 6)'
p3038
(lp3039
g17
aI1
asS'action(north, 5, 3)'
p3040
(lp3041
g17
aI1
asS'action(south, 4, 7)'
p3042
(lp3043
g17
aI1
asS'action(near, 7, 8)'
p3044
(lp3045
g17
aI1
asS'action(north, 4, 7)'
p3046
(lp3047
g17
aI1
asS'action(east, 8, 4)'
p3048
(lp3049
g17
aI1
asS'action(north, 4, 1)'
p3050
(lp3051
g17
aI1
asS'action(near, 6, 7)'
p3052
(lp3053
g17
aI1
asS'action(south, 7, 8)'
p3054
(lp3055
g17
aI1
asS'action(south, 5, 3)'
p3056
(lp3057
g17
aI1
asS'action(near, 3, 8)'
p3058
(lp3059
g17
aI1
asS'action(east, 3, 4)'
p3060
(lp3061
g17
aI1
asS'action(west, 4, 6)'
p3062
(lp3063
g17
aI1
asS'action(west, 8, 6)'
p3064
(lp3065
g17
aI1
asS'action(east, 1, 7)'
p3066
(lp3067
g17
aI1
asS'action(north, 4, 8)'
p3068
(lp3069
g17
aI1
asS'action(west, 5, 4)'
p3070
(lp3071
g17
aI1
asS'action(west, 4, 8)'
p3072
(lp3073
g17
aI1
asS'action(near, 5, 8)'
p3074
(lp3075
g17
aI1
asS'action(west, 8, 4)'
p3076
(lp3077
g17
aI1
asS'action(east, 6, 5)'
p3078
(lp3079
g17
aI1
asS'action(west, 4, 7)'
p3080
(lp3081
g17
aI1
asS'action(east, 5, 4)'
p3082
(lp3083
g17
aI1
asS'action(near, 4, 3)'
p3084
(lp3085
g17
aI1
asS'action(west, 3, 6)'
p3086
(lp3087
g17
aI1
astp3088
a((lp3089
S'fork(1)'
p3090
aS'fork(3)'
p3091
aS'plate(4)'
p3092
aS'plate(5)'
p3093
aS'bowl(6)'
p3094
aS'fork(7)'
p3095
aS'plate(8)'
p3096
aS'not_near(1, 3)'
p3097
aS'not_east(1, 3)'
p3098
aS'west(1, 3)'
p3099
aS'not_south(1, 3)'
p3100
aS'not_near(1, 4)'
p3101
aS'not_east(1, 4)'
p3102
aS'west(1, 4)'
p3103
aS'south(1, 4)'
p3104
aS'near(1, 5)'
p3105
aS'not_east(1, 5)'
p3106
aS'west(1, 5)'
p3107
aS'not_south(1, 5)'
p3108
aS'not_near(1, 6)'
p3109
aS'not_east(1, 6)'
p3110
aS'west(1, 6)'
p3111
aS'south(1, 6)'
p3112
aS'not_near(1, 7)'
p3113
aS'not_east(1, 7)'
p3114
aS'west(1, 7)'
p3115
aS'south(1, 7)'
p3116
aS'not_near(1, 8)'
p3117
aS'not_east(1, 8)'
p3118
aS'not_west(1, 8)'
p3119
aS'not_south(1, 8)'
p3120
aS'not_near(3, 1)'
p3121
aS'east(3, 1)'
p3122
aS'not_west(3, 1)'
p3123
aS'south(3, 1)'
p3124
aS'not_near(3, 4)'
p3125
aS'not_east(3, 4)'
p3126
aS'not_west(3, 4)'
p3127
aS'south(3, 4)'
p3128
aS'not_near(3, 5)'
p3129
aS'east(3, 5)'
p3130
aS'not_west(3, 5)'
p3131
aS'south(3, 5)'
p3132
aS'not_near(3, 6)'
p3133
aS'east(3, 6)'
p3134
aS'not_west(3, 6)'
p3135
aS'south(3, 6)'
p3136
aS'not_near(3, 7)'
p3137
aS'not_east(3, 7)'
p3138
aS'west(3, 7)'
p3139
aS'south(3, 7)'
p3140
aS'not_near(3, 8)'
p3141
aS'east(3, 8)'
p3142
aS'not_west(3, 8)'
p3143
aS'south(3, 8)'
p3144
aS'not_near(4, 1)'
p3145
aS'east(4, 1)'
p3146
aS'not_west(4, 1)'
p3147
aS'not_south(4, 1)'
p3148
aS'not_near(4, 3)'
p3149
aS'not_east(4, 3)'
p3150
aS'not_west(4, 3)'
p3151
aS'not_south(4, 3)'
p3152
aS'near(4, 5)'
p3153
aS'east(4, 5)'
p3154
aS'not_west(4, 5)'
p3155
aS'not_south(4, 5)'
p3156
aS'near(4, 6)'
p3157
aS'east(4, 6)'
p3158
aS'not_west(4, 6)'
p3159
aS'south(4, 6)'
p3160
aS'near(4, 7)'
p3161
aS'not_east(4, 7)'
p3162
aS'west(4, 7)'
p3163
aS'not_south(4, 7)'
p3164
aS'not_near(4, 8)'
p3165
aS'east(4, 8)'
p3166
aS'not_west(4, 8)'
p3167
aS'not_south(4, 8)'
p3168
aS'near(5, 1)'
p3169
aS'east(5, 1)'
p3170
aS'not_west(5, 1)'
p3171
aS'not_south(5, 1)'
p3172
aS'not_near(5, 3)'
p3173
aS'not_east(5, 3)'
p3174
aS'west(5, 3)'
p3175
aS'not_south(5, 3)'
p3176
aS'near(5, 4)'
p3177
aS'not_east(5, 4)'
p3178
aS'west(5, 4)'
p3179
aS'not_south(5, 4)'
p3180
aS'near(5, 6)'
p3181
aS'not_east(5, 6)'
p3182
aS'not_west(5, 6)'
p3183
aS'south(5, 6)'
p3184
aS'not_near(5, 7)'
p3185
aS'not_east(5, 7)'
p3186
aS'west(5, 7)'
p3187
aS'south(5, 7)'
p3188
aS'not_near(5, 8)'
p3189
aS'east(5, 8)'
p3190
aS'not_west(5, 8)'
p3191
aS'not_south(5, 8)'
p3192
aS'not_near(6, 1)'
p3193
aS'east(6, 1)'
p3194
aS'not_west(6, 1)'
p3195
aS'not_south(6, 1)'
p3196
aS'not_near(6, 3)'
p3197
aS'not_east(6, 3)'
p3198
aS'west(6, 3)'
p3199
aS'not_south(6, 3)'
p3200
aS'near(6, 4)'
p3201
aS'not_east(6, 4)'
p3202
aS'west(6, 4)'
p3203
aS'not_south(6, 4)'
p3204
aS'near(6, 5)'
p3205
aS'not_east(6, 5)'
p3206
aS'not_west(6, 5)'
p3207
aS'not_south(6, 5)'
p3208
aS'not_near(6, 7)'
p3209
aS'not_east(6, 7)'
p3210
aS'west(6, 7)'
p3211
aS'not_south(6, 7)'
p3212
aS'not_near(6, 8)'
p3213
aS'east(6, 8)'
p3214
aS'not_west(6, 8)'
p3215
aS'not_south(6, 8)'
p3216
aS'not_near(7, 1)'
p3217
aS'east(7, 1)'
p3218
aS'not_west(7, 1)'
p3219
aS'not_south(7, 1)'
p3220
aS'not_near(7, 3)'
p3221
aS'east(7, 3)'
p3222
aS'not_west(7, 3)'
p3223
aS'not_south(7, 3)'
p3224
aS'near(7, 4)'
p3225
aS'east(7, 4)'
p3226
aS'not_west(7, 4)'
p3227
aS'not_south(7, 4)'
p3228
aS'not_near(7, 5)'
p3229
aS'east(7, 5)'
p3230
aS'not_west(7, 5)'
p3231
aS'not_south(7, 5)'
p3232
aS'not_near(7, 6)'
p3233
aS'east(7, 6)'
p3234
aS'not_west(7, 6)'
p3235
aS'not_south(7, 6)'
p3236
aS'not_near(7, 8)'
p3237
aS'east(7, 8)'
p3238
aS'not_west(7, 8)'
p3239
aS'not_south(7, 8)'
p3240
aS'not_near(8, 1)'
p3241
aS'not_east(8, 1)'
p3242
aS'not_west(8, 1)'
p3243
aS'south(8, 1)'
p3244
aS'not_near(8, 3)'
p3245
aS'not_east(8, 3)'
p3246
aS'west(8, 3)'
p3247
aS'not_south(8, 3)'
p3248
aS'not_near(8, 4)'
p3249
aS'not_east(8, 4)'
p3250
aS'west(8, 4)'
p3251
aS'south(8, 4)'
p3252
aS'not_near(8, 5)'
p3253
aS'not_east(8, 5)'
p3254
aS'west(8, 5)'
p3255
aS'south(8, 5)'
p3256
aS'not_near(8, 6)'
p3257
aS'not_east(8, 6)'
p3258
aS'west(8, 6)'
p3259
aS'south(8, 6)'
p3260
aS'not_near(8, 7)'
p3261
aS'not_east(8, 7)'
p3262
aS'west(8, 7)'
p3263
aS'south(8, 7)'
p3264
a(dp3265
S'action(north, 1, 3)'
p3266
(lp3267
g17
aI1
asS'action(north, 8, 6)'
p3268
(lp3269
g17
aI1
asS'action(west, 6, 5)'
p3270
(lp3271
g17
aI1
asS'action(near, 4, 5)'
p3272
(lp3273
g17
aI1
asS'action(near, 6, 4)'
p3274
(lp3275
g17
aI1
asS'action(east, 6, 3)'
p3276
(lp3277
g17
aI1
asS'action(south, 6, 8)'
p3278
(lp3279
g17
aI1
asS'action(north, 5, 4)'
p3280
(lp3281
g17
aI1
asS'action(east, 4, 1)'
p3282
(lp3283
g17
aI1
asS'action(east, 8, 7)'
p3284
(lp3285
g17
aI1
asS'action(south, 3, 7)'
p3286
(lp3287
g17
aI1
asS'action(east, 3, 5)'
p3288
(lp3289
g17
aI1
asS'action(east, 1, 4)'
p3290
(lp3291
g17
aI1
asS'action(near, 1, 8)'
p3292
(lp3293
g17
aI1
asS'action(west, 4, 1)'
p3294
(lp3295
g17
aI1
asS'action(west, 8, 3)'
p3296
(lp3297
g17
aI1
asS'action(near, 5, 7)'
p3298
(lp3299
g17
aI1
asS'action(south, 5, 8)'
p3300
(lp3301
g17
aI1
asS'action(west, 1, 3)'
p3302
(lp3303
g17
aI1
asS'action(west, 4, 5)'
p3304
(lp3305
g17
aI1
asS'action(near, 7, 5)'
p3306
(lp3307
g17
aI1
asS'action(south, 6, 1)'
p3308
(lp3309
g17
aI1
asS'action(south, 8, 4)'
p3310
(lp3311
g17
aI1
asS'action(west, 5, 7)'
p3312
(lp3313
g17
aI1
asS'action(north, 4, 6)'
p3314
(lp3315
g17
aI1
asS'action(near, 8, 1)'
p3316
(lp3317
g17
aI1
asS'action(east, 5, 3)'
p3318
(lp3319
g17
aI1
asS'action(west, 3, 7)'
p3320
(lp3321
g17
aI1
asS'action(east, 6, 4)'
p3322
(lp3323
g17
aI1
asS'action(south, 6, 7)'
p3324
(lp3325
g17
aI1
asS'action(west, 6, 4)'
p3326
(lp3327
g17
aI1
asS'action(south, 5, 6)'
p3328
(lp3329
g17
aI1
asS'action(north, 1, 4)'
p3330
(lp3331
g17
aI1
asS'action(east, 8, 6)'
p3332
(lp3333
g17
aI1
asS'action(north, 4, 5)'
p3334
(lp3335
g17
aI1
asS'action(near, 4, 6)'
p3336
(lp3337
g17
aI1
asS'action(near, 6, 5)'
p3338
(lp3339
g17
aI1
asS'action(south, 8, 3)'
p3340
(lp3341
g17
aI1
asS'action(east, 7, 1)'
p3342
(lp3343
g17
aI1
asS'action(west, 8, 7)'
p3344
(lp3345
g17
aI1
asS'action(north, 6, 5)'
p3346
(lp3347
g17
aI1
asS'action(east, 7, 4)'
p3348
(lp3349
g17
aI1
asS'action(east, 3, 6)'
p3350
(lp3351
g17
aI1
asS'action(east, 1, 5)'
p3352
(lp3353
g17
aI1
asS'action(near, 5, 6)'
p3354
(lp3355
g17
aI1
asS'action(south, 7, 3)'
p3356
(lp3357
g17
aI1
asS'action(east, 4, 8)'
p3358
(lp3359
g17
aI1
asS'action(south, 1, 6)'
p3360
(lp3361
g17
aI1
asS'action(south, 7, 4)'
p3362
(lp3363
g17
aI1
asS'action(south, 4, 8)'
p3364
(lp3365
g17
aI1
asS'action(near, 7, 4)'
p3366
(lp3367
g17
aI1
asS'action(west, 1, 4)'
p3368
(lp3369
g17
aI1
asS'action(near, 1, 7)'
p3370
(lp3371
g17
aI1
asg31
(lp3372
g17
aI1
asS'action(south, 3, 8)'
p3373
(lp3374
g17
aI1
asS'action(west, 7, 3)'
p3375
(lp3376
g17
aI1
asS'action(east, 1, 8)'
p3377
(lp3378
g17
aI1
asS'action(near, 4, 7)'
p3379
(lp3380
g17
aI1
asS'action(west, 4, 3)'
p3381
(lp3382
g17
aI1
asS'action(north, 1, 5)'
p3383
(lp3384
g17
aI1
asS'action(east, 6, 1)'
p3385
(lp3386
g17
aI1
asS'action(east, 8, 1)'
p3387
(lp3388
g17
aI1
asS'action(north, 6, 4)'
p3389
(lp3390
g17
aI1
asS'action(east, 3, 7)'
p3391
(lp3392
g17
aI1
asS'action(west, 5, 8)'
p3393
(lp3394
g17
aI1
asS'action(north, 5, 6)'
p3395
(lp3396
g17
aI1
asS'action(east, 4, 3)'
p3397
(lp3398
g17
aI1
asS'action(west, 5, 6)'
p3399
(lp3400
g17
aI1
asS'action(north, 8, 3)'
p3401
(lp3402
g17
aI1
asS'action(north, 7, 6)'
p3403
(lp3404
g17
aI1
asS'action(east, 7, 6)'
p3405
(lp3406
g17
aI1
asS'action(south, 3, 1)'
p3407
(lp3408
g17
aI1
asS'action(west, 7, 1)'
p3409
(lp3410
g17
aI1
asS'action(west, 3, 4)'
p3411
(lp3412
g22
aI104
asS'action(south, 7, 5)'
p3413
(lp3414
g17
aI1
asS'action(west, 1, 5)'
p3415
(lp3416
g17
aI1
asS'action(near, 8, 3)'
p3417
(lp3418
g17
aI1
asS'action(south, 5, 1)'
p3419
(lp3420
g17
aI1
asS'action(near, 1, 6)'
p3421
(lp3422
g17
aI1
asS'action(west, 3, 5)'
p3423
(lp3424
g17
aI1
asS'action(north, 3, 8)'
p3425
(lp3426
g17
aI1
asS'action(south, 4, 3)'
p3427
(lp3428
g17
aI1
asS'action(west, 7, 5)'
p3429
(lp3430
g17
aI1
asS'action(south, 8, 5)'
p3431
(lp3432
g17
aI1
asS'action(south, 6, 5)'
p3433
(lp3434
g17
aI1
asS'action(north, 4, 3)'
p3435
(lp3436
g17
aI1
asS'action(south, 7, 1)'
p3437
(lp3438
g17
aI1
asS'action(east, 7, 3)'
p3439
(lp3440
g17
aI1
asS'action(north, 5, 7)'
p3441
(lp3442
g17
aI1
asS'action(east, 5, 8)'
p3443
(lp3444
g17
aI1
asS'action(west, 8, 5)'
p3445
(lp3446
g17
aI1
asS'action(north, 6, 7)'
p3447
(lp3448
g17
aI1
asS'action(near, 6, 3)'
p3449
(lp3450
g17
aI1
asS'action(near, 5, 4)'
p3451
(lp3452
g17
aI1
asS'action(south, 4, 5)'
p3453
(lp3454
g17
aI1
asS'action(south, 3, 6)'
p3455
(lp3456
g17
aI1
asS'action(near, 7, 6)'
p3457
(lp3458
g17
aI1
asS'action(near, 1, 3)'
p3459
(lp3460
g17
aI1
asS'action(north, 3, 1)'
p3461
(lp3462
g17
aI1
asS'action(east, 1, 3)'
p3463
(lp3464
g17
aI1
asS'action(near, 1, 5)'
p3465
(lp3466
g17
aI1
asS'action(north, 8, 5)'
p3467
(lp3468
g17
aI1
asS'action(south, 7, 6)'
p3469
(lp3470
g17
aI1
asS'action(south, 8, 1)'
p3471
(lp3472
g17
aI1
asS'action(south, 8, 7)'
p3473
(lp3474
g17
aI1
asS'action(west, 1, 6)'
p3475
(lp3476
g17
aI1
asS'action(near, 8, 4)'
p3477
(lp3478
g17
aI1
asS'action(west, 6, 7)'
p3479
(lp3480
g17
aI1
asS'action(north, 1, 7)'
p3481
(lp3482
g17
aI1
asS'action(south, 1, 3)'
p3483
(lp3484
g17
aI1
asS'action(west, 1, 7)'
p3485
(lp3486
g17
aI1
asS'action(near, 3, 5)'
p3487
(lp3488
g17
aI1
asS'action(west, 7, 6)'
p3489
(lp3490
g17
aI1
asS'action(east, 8, 3)'
p3491
(lp3492
g17
aI1
asS'action(east, 7, 8)'
p3493
(lp3494
g17
aI1
asS'action(near, 4, 1)'
p3495
(lp3496
g17
aI1
asS'action(near, 6, 8)'
p3497
(lp3498
g17
aI1
asS'action(east, 6, 7)'
p3499
(lp3500
g17
aI1
asS'action(south, 1, 7)'
p3501
(lp3502
g17
aI1
asS'action(west, 6, 1)'
p3503
(lp3504
g17
aI1
asS'action(east, 4, 5)'
p3505
(lp3506
g17
aI1
asS'action(north, 7, 4)'
p3507
(lp3508
g17
aI1
asS'action(south, 1, 5)'
p3509
(lp3510
g17
aI1
asS'action(east, 3, 1)'
p3511
(lp3512
g17
aI1
asS'action(east, 5, 1)'
p3513
(lp3514
g17
aI1
asS'action(south, 1, 4)'
p3515
(lp3516
g17
aI1
asS'action(west, 3, 8)'
p3517
(lp3518
g17
aI1
asS'action(near, 5, 3)'
p3519
(lp3520
g17
aI1
asS'action(south, 6, 4)'
p3521
(lp3522
g17
aI1
asS'action(north, 5, 8)'
p3523
(lp3524
g17
aI1
asS'action(near, 7, 1)'
p3525
(lp3526
g17
aI1
asS'action(south, 5, 4)'
p3527
(lp3528
g17
aI1
asS'action(east, 6, 8)'
p3529
(lp3530
g17
aI1
asS'action(near, 1, 4)'
p3531
(lp3532
g17
aI1
asS'action(near, 4, 8)'
p3533
(lp3534
g17
aI1
asS'action(south, 4, 1)'
p3535
(lp3536
g17
aI1
asS'action(north, 3, 6)'
p3537
(lp3538
g17
aI1
asS'action(near, 8, 5)'
p3539
(lp3540
g17
aI1
asS'action(south, 5, 7)'
p3541
(lp3542
g17
aI1
asS'action(north, 1, 6)'
p3543
(lp3544
g17
aI1
asS'action(near, 3, 4)'
p3545
(lp3546
g17
aI1
asS'action(east, 3, 8)'
p3547
(lp3548
g17
aI1
asS'action(north, 7, 1)'
p3549
(lp3550
g17
aI1
asS'action(north, 7, 3)'
p3551
(lp3552
g17
aI1
asS'action(east, 7, 5)'
p3553
(lp3554
g17
aI1
asS'action(north, 5, 1)'
p3555
(lp3556
g17
aI1
asS'action(north, 6, 1)'
p3557
(lp3558
g17
aI1
asS'action(north, 3, 7)'
p3559
(lp3560
g17
aI1
asS'action(near, 6, 1)'
p3561
(lp3562
g17
aI1
asS'action(north, 7, 5)'
p3563
(lp3564
g17
aI1
asS'action(south, 3, 4)'
p3565
(lp3566
g17
aI1
asS'action(west, 5, 3)'
p3567
(lp3568
g17
aI1
asS'action(north, 8, 4)'
p3569
(lp3570
g17
aI1
asS'action(near, 8, 6)'
p3571
(lp3572
g17
aI1
asS'action(south, 8, 6)'
p3573
(lp3574
g17
aI1
asS'action(near, 3, 7)'
p3575
(lp3576
g17
aI1
asS'action(north, 8, 7)'
p3577
(lp3578
g17
aI1
asS'action(east, 5, 6)'
p3579
(lp3580
g17
aI1
asS'action(west, 7, 4)'
p3581
(lp3582
g17
aI1
asS'action(east, 4, 7)'
p3583
(lp3584
g17
aI1
asS'action(near, 3, 1)'
p3585
(lp3586
g17
aI1
asS'action(north, 7, 8)'
p3587
(lp3588
g17
aI1
asS'action(west, 6, 3)'
p3589
(lp3590
g17
aI1
asS'action(near, 5, 1)'
p3591
(lp3592
g17
aI1
asS'action(east, 8, 5)'
p3593
(lp3594
g17
aI1
asS'action(west, 7, 8)'
p3595
(lp3596
g17
aI1
asS'action(near, 7, 3)'
p3597
(lp3598
g17
aI1
asS'action(west, 5, 1)'
p3599
(lp3600
g17
aI1
asS'action(west, 8, 1)'
p3601
(lp3602
g17
aI1
asS'action(north, 8, 1)'
p3603
(lp3604
g17
aI1
asS'action(north, 6, 8)'
p3605
(lp3606
g17
aI1
asS'action(east, 1, 6)'
p3607
(lp3608
g17
aI1
asS'action(near, 8, 7)'
p3609
(lp3610
g17
aI1
asS'action(south, 3, 5)'
p3611
(lp3612
g17
aI1
asS'action(west, 6, 8)'
p3613
(lp3614
g17
aI1
asS'action(north, 1, 8)'
p3615
(lp3616
g17
aI1
asS'action(north, 3, 4)'
p3617
(lp3618
g17
aI1
asS'action(near, 3, 6)'
p3619
(lp3620
g17
aI1
asS'action(east, 5, 7)'
p3621
(lp3622
g17
aI1
asS'action(west, 3, 1)'
p3623
(lp3624
g17
aI1
asS'action(west, 1, 8)'
p3625
(lp3626
g17
aI1
asS'action(south, 6, 3)'
p3627
(lp3628
g17
aI1
asS'action(north, 3, 5)'
p3629
(lp3630
g17
aI1
asS'action(north, 6, 3)'
p3631
(lp3632
g17
aI1
asS'action(south, 1, 8)'
p3633
(lp3634
g17
aI1
asS'action(south, 4, 6)'
p3635
(lp3636
g17
aI1
asS'action(east, 4, 6)'
p3637
(lp3638
g17
aI1
asS'action(north, 5, 3)'
p3639
(lp3640
g17
aI1
asS'action(south, 4, 7)'
p3641
(lp3642
g17
aI1
asS'action(near, 7, 8)'
p3643
(lp3644
g17
aI1
asS'action(north, 4, 7)'
p3645
(lp3646
g17
aI1
asS'action(east, 8, 4)'
p3647
(lp3648
g17
aI1
asS'action(north, 4, 1)'
p3649
(lp3650
g17
aI1
asS'action(near, 6, 7)'
p3651
(lp3652
g17
aI1
asS'action(south, 7, 8)'
p3653
(lp3654
g17
aI1
asS'action(south, 5, 3)'
p3655
(lp3656
g17
aI1
asS'action(near, 3, 8)'
p3657
(lp3658
g22
aI104
asS'action(east, 3, 4)'
p3659
(lp3660
g17
aI1
asS'action(west, 4, 6)'
p3661
(lp3662
g17
aI1
asS'action(west, 8, 6)'
p3663
(lp3664
g17
aI1
asS'action(east, 1, 7)'
p3665
(lp3666
g17
aI1
asS'action(north, 4, 8)'
p3667
(lp3668
g17
aI1
asS'action(west, 5, 4)'
p3669
(lp3670
g17
aI1
asS'action(west, 4, 8)'
p3671
(lp3672
g17
aI1
asS'action(near, 5, 8)'
p3673
(lp3674
g17
aI1
asS'action(west, 8, 4)'
p3675
(lp3676
g17
aI1
asS'action(east, 6, 5)'
p3677
(lp3678
g17
aI1
asS'action(west, 4, 7)'
p3679
(lp3680
g17
aI1
asS'action(east, 5, 4)'
p3681
(lp3682
g17
aI1
asS'action(near, 4, 3)'
p3683
(lp3684
g17
aI1
asS'action(west, 3, 6)'
p3685
(lp3686
g17
aI1
astp3687
a((lp3688
S'fork(1)'
p3689
aS'fork(3)'
p3690
aS'plate(4)'
p3691
aS'plate(5)'
p3692
aS'bowl(6)'
p3693
aS'fork(7)'
p3694
aS'plate(8)'
p3695
aS'not_near(1, 3)'
p3696
aS'not_east(1, 3)'
p3697
aS'west(1, 3)'
p3698
aS'not_south(1, 3)'
p3699
aS'not_near(1, 4)'
p3700
aS'not_east(1, 4)'
p3701
aS'west(1, 4)'
p3702
aS'south(1, 4)'
p3703
aS'near(1, 5)'
p3704
aS'not_east(1, 5)'
p3705
aS'west(1, 5)'
p3706
aS'not_south(1, 5)'
p3707
aS'not_near(1, 6)'
p3708
aS'not_east(1, 6)'
p3709
aS'west(1, 6)'
p3710
aS'south(1, 6)'
p3711
aS'not_near(1, 7)'
p3712
aS'not_east(1, 7)'
p3713
aS'west(1, 7)'
p3714
aS'south(1, 7)'
p3715
aS'not_near(1, 8)'
p3716
aS'not_east(1, 8)'
p3717
aS'not_west(1, 8)'
p3718
aS'not_south(1, 8)'
p3719
aS'not_near(3, 1)'
p3720
aS'east(3, 1)'
p3721
aS'not_west(3, 1)'
p3722
aS'south(3, 1)'
p3723
aS'not_near(3, 4)'
p3724
aS'not_east(3, 4)'
p3725
aS'west(3, 4)'
p3726
aS'south(3, 4)'
p3727
aS'not_near(3, 5)'
p3728
aS'not_east(3, 5)'
p3729
aS'not_west(3, 5)'
p3730
aS'south(3, 5)'
p3731
aS'not_near(3, 6)'
p3732
aS'not_east(3, 6)'
p3733
aS'not_west(3, 6)'
p3734
aS'south(3, 6)'
p3735
aS'not_near(3, 7)'
p3736
aS'not_east(3, 7)'
p3737
aS'west(3, 7)'
p3738
aS'south(3, 7)'
p3739
aS'near(3, 8)'
p3740
aS'east(3, 8)'
p3741
aS'not_west(3, 8)'
p3742
aS'not_south(3, 8)'
p3743
aS'not_near(4, 1)'
p3744
aS'east(4, 1)'
p3745
aS'not_west(4, 1)'
p3746
aS'not_south(4, 1)'
p3747
aS'not_near(4, 3)'
p3748
aS'east(4, 3)'
p3749
aS'not_west(4, 3)'
p3750
aS'not_south(4, 3)'
p3751
aS'near(4, 5)'
p3752
aS'east(4, 5)'
p3753
aS'not_west(4, 5)'
p3754
aS'not_south(4, 5)'
p3755
aS'near(4, 6)'
p3756
aS'east(4, 6)'
p3757
aS'not_west(4, 6)'
p3758
aS'south(4, 6)'
p3759
aS'near(4, 7)'
p3760
aS'not_east(4, 7)'
p3761
aS'west(4, 7)'
p3762
aS'not_south(4, 7)'
p3763
aS'not_near(4, 8)'
p3764
aS'east(4, 8)'
p3765
aS'not_west(4, 8)'
p3766
aS'not_south(4, 8)'
p3767
aS'near(5, 1)'
p3768
aS'east(5, 1)'
p3769
aS'not_west(5, 1)'
p3770
aS'not_south(5, 1)'
p3771
aS'not_near(5, 3)'
p3772
aS'not_east(5, 3)'
p3773
aS'not_west(5, 3)'
p3774
aS'not_south(5, 3)'
p3775
aS'near(5, 4)'
p3776
aS'not_east(5, 4)'
p3777
aS'west(5, 4)'
p3778
aS'not_south(5, 4)'
p3779
aS'near(5, 6)'
p3780
aS'not_east(5, 6)'
p3781
aS'not_west(5, 6)'
p3782
aS'south(5, 6)'
p3783
aS'not_near(5, 7)'
p3784
aS'not_east(5, 7)'
p3785
aS'west(5, 7)'
p3786
aS'south(5, 7)'
p3787
aS'not_near(5, 8)'
p3788
aS'east(5, 8)'
p3789
aS'not_west(5, 8)'
p3790
aS'not_south(5, 8)'
p3791
aS'not_near(6, 1)'
p3792
aS'east(6, 1)'
p3793
aS'not_west(6, 1)'
p3794
aS'not_south(6, 1)'
p3795
aS'not_near(6, 3)'
p3796
aS'not_east(6, 3)'
p3797
aS'not_west(6, 3)'
p3798
aS'not_south(6, 3)'
p3799
aS'near(6, 4)'
p3800
aS'not_east(6, 4)'
p3801
aS'west(6, 4)'
p3802
aS'not_south(6, 4)'
p3803
aS'near(6, 5)'
p3804
aS'not_east(6, 5)'
p3805
aS'not_west(6, 5)'
p3806
aS'not_south(6, 5)'
p3807
aS'not_near(6, 7)'
p3808
aS'not_east(6, 7)'
p3809
aS'west(6, 7)'
p3810
aS'not_south(6, 7)'
p3811
aS'not_near(6, 8)'
p3812
aS'east(6, 8)'
p3813
aS'not_west(6, 8)'
p3814
aS'not_south(6, 8)'
p3815
aS'not_near(7, 1)'
p3816
aS'east(7, 1)'
p3817
aS'not_west(7, 1)'
p3818
aS'not_south(7, 1)'
p3819
aS'not_near(7, 3)'
p3820
aS'east(7, 3)'
p3821
aS'not_west(7, 3)'
p3822
aS'not_south(7, 3)'
p3823
aS'near(7, 4)'
p3824
aS'east(7, 4)'
p3825
aS'not_west(7, 4)'
p3826
aS'not_south(7, 4)'
p3827
aS'not_near(7, 5)'
p3828
aS'east(7, 5)'
p3829
aS'not_west(7, 5)'
p3830
aS'not_south(7, 5)'
p3831
aS'not_near(7, 6)'
p3832
aS'east(7, 6)'
p3833
aS'not_west(7, 6)'
p3834
aS'not_south(7, 6)'
p3835
aS'not_near(7, 8)'
p3836
aS'east(7, 8)'
p3837
aS'not_west(7, 8)'
p3838
aS'not_south(7, 8)'
p3839
aS'not_near(8, 1)'
p3840
aS'not_east(8, 1)'
p3841
aS'not_west(8, 1)'
p3842
aS'south(8, 1)'
p3843
aS'near(8, 3)'
p3844
aS'not_east(8, 3)'
p3845
aS'west(8, 3)'
p3846
aS'not_south(8, 3)'
p3847
aS'not_near(8, 4)'
p3848
aS'not_east(8, 4)'
p3849
aS'west(8, 4)'
p3850
aS'south(8, 4)'
p3851
aS'not_near(8, 5)'
p3852
aS'not_east(8, 5)'
p3853
aS'west(8, 5)'
p3854
aS'south(8, 5)'
p3855
aS'not_near(8, 6)'
p3856
aS'not_east(8, 6)'
p3857
aS'west(8, 6)'
p3858
aS'south(8, 6)'
p3859
aS'not_near(8, 7)'
p3860
aS'not_east(8, 7)'
p3861
aS'west(8, 7)'
p3862
aS'south(8, 7)'
p3863
a(dp3864
S'action(north, 1, 3)'
p3865
(lp3866
g17
aI1
asS'action(north, 8, 6)'
p3867
(lp3868
g17
aI1
asS'action(west, 6, 5)'
p3869
(lp3870
g17
aI1
asS'action(near, 4, 5)'
p3871
(lp3872
g17
aI1
asS'action(near, 6, 4)'
p3873
(lp3874
g17
aI1
asS'action(east, 6, 3)'
p3875
(lp3876
g17
aI1
asS'action(south, 6, 8)'
p3877
(lp3878
g17
aI1
asS'action(north, 5, 4)'
p3879
(lp3880
g17
aI1
asS'action(east, 4, 1)'
p3881
(lp3882
g17
aI1
asS'action(east, 8, 7)'
p3883
(lp3884
g17
aI1
asS'action(south, 3, 7)'
p3885
(lp3886
g17
aI1
asS'action(east, 3, 5)'
p3887
(lp3888
g17
aI1
asS'action(east, 1, 4)'
p3889
(lp3890
g17
aI1
asS'action(near, 1, 8)'
p3891
(lp3892
g17
aI1
asS'action(west, 4, 1)'
p3893
(lp3894
g17
aI1
asS'action(west, 8, 3)'
p3895
(lp3896
g17
aI1
asS'action(near, 5, 7)'
p3897
(lp3898
g17
aI1
asS'action(south, 5, 8)'
p3899
(lp3900
g17
aI1
asS'action(west, 1, 3)'
p3901
(lp3902
g17
aI1
asS'action(west, 4, 5)'
p3903
(lp3904
g17
aI1
asS'action(near, 7, 5)'
p3905
(lp3906
g17
aI1
asS'action(south, 6, 1)'
p3907
(lp3908
g17
aI1
asS'action(south, 8, 4)'
p3909
(lp3910
g17
aI1
asS'action(west, 5, 7)'
p3911
(lp3912
g17
aI1
asS'action(north, 4, 6)'
p3913
(lp3914
g17
aI1
asS'action(near, 8, 1)'
p3915
(lp3916
g17
aI1
asS'action(east, 5, 3)'
p3917
(lp3918
g17
aI1
asS'action(west, 3, 7)'
p3919
(lp3920
g17
aI1
asS'action(east, 6, 4)'
p3921
(lp3922
g17
aI1
asS'action(south, 6, 7)'
p3923
(lp3924
g17
aI1
asS'action(west, 6, 4)'
p3925
(lp3926
g17
aI1
asS'action(south, 5, 6)'
p3927
(lp3928
g17
aI1
asS'action(north, 1, 4)'
p3929
(lp3930
g17
aI1
asS'action(east, 8, 6)'
p3931
(lp3932
g17
aI1
asS'action(north, 4, 5)'
p3933
(lp3934
g17
aI1
asS'action(near, 4, 6)'
p3935
(lp3936
g17
aI1
asS'action(near, 6, 5)'
p3937
(lp3938
g17
aI1
asS'action(south, 8, 3)'
p3939
(lp3940
g17
aI1
asS'action(east, 7, 1)'
p3941
(lp3942
g17
aI1
asS'action(west, 8, 7)'
p3943
(lp3944
g17
aI1
asS'action(north, 6, 5)'
p3945
(lp3946
g17
aI1
asS'action(east, 7, 4)'
p3947
(lp3948
g17
aI1
asS'action(east, 3, 6)'
p3949
(lp3950
g17
aI1
asS'action(east, 1, 5)'
p3951
(lp3952
g17
aI1
asS'action(near, 5, 6)'
p3953
(lp3954
g17
aI1
asS'action(south, 7, 3)'
p3955
(lp3956
g17
aI1
asS'action(east, 4, 8)'
p3957
(lp3958
g17
aI1
asS'action(south, 1, 6)'
p3959
(lp3960
g17
aI1
asS'action(south, 7, 4)'
p3961
(lp3962
g17
aI1
asS'action(south, 4, 8)'
p3963
(lp3964
g17
aI1
asS'action(near, 7, 4)'
p3965
(lp3966
g17
aI1
asS'action(west, 1, 4)'
p3967
(lp3968
g17
aI1
asS'action(near, 1, 7)'
p3969
(lp3970
g17
aI1
asg31
(lp3971
g22
aI210
asS'action(south, 3, 8)'
p3972
(lp3973
g17
aI1
asS'action(west, 7, 3)'
p3974
(lp3975
g17
aI1
asS'action(east, 1, 8)'
p3976
(lp3977
g17
aI1
asS'action(near, 4, 7)'
p3978
(lp3979
g17
aI1
asS'action(west, 4, 3)'
p3980
(lp3981
g17
aI1
asS'action(north, 1, 5)'
p3982
(lp3983
g17
aI1
asS'action(east, 6, 1)'
p3984
(lp3985
g17
aI1
asS'action(east, 8, 1)'
p3986
(lp3987
g17
aI1
asS'action(north, 6, 4)'
p3988
(lp3989
g17
aI1
asS'action(east, 3, 7)'
p3990
(lp3991
g17
aI1
asS'action(west, 5, 8)'
p3992
(lp3993
g17
aI1
asS'action(north, 5, 6)'
p3994
(lp3995
g17
aI1
asS'action(east, 4, 3)'
p3996
(lp3997
g17
aI1
asS'action(west, 5, 6)'
p3998
(lp3999
g17
aI1
asS'action(north, 8, 3)'
p4000
(lp4001
g17
aI1
asS'action(north, 7, 6)'
p4002
(lp4003
g17
aI1
asS'action(east, 7, 6)'
p4004
(lp4005
g17
aI1
asS'action(south, 3, 1)'
p4006
(lp4007
g17
aI1
asS'action(west, 7, 1)'
p4008
(lp4009
g17
aI1
asS'action(west, 3, 4)'
p4010
(lp4011
g17
aI1
asS'action(south, 7, 5)'
p4012
(lp4013
g17
aI1
asS'action(west, 1, 5)'
p4014
(lp4015
g17
aI1
asS'action(near, 8, 3)'
p4016
(lp4017
g17
aI1
asS'action(south, 5, 1)'
p4018
(lp4019
g17
aI1
asS'action(near, 1, 6)'
p4020
(lp4021
g17
aI1
asS'action(west, 3, 5)'
p4022
(lp4023
g17
aI1
asS'action(north, 3, 8)'
p4024
(lp4025
g17
aI1
asS'action(south, 4, 3)'
p4026
(lp4027
g17
aI1
asS'action(west, 7, 5)'
p4028
(lp4029
g17
aI1
asS'action(south, 8, 5)'
p4030
(lp4031
g17
aI1
asS'action(south, 6, 5)'
p4032
(lp4033
g17
aI1
asS'action(north, 4, 3)'
p4034
(lp4035
g17
aI1
asS'action(south, 7, 1)'
p4036
(lp4037
g17
aI1
asS'action(east, 7, 3)'
p4038
(lp4039
g17
aI1
asS'action(north, 5, 7)'
p4040
(lp4041
g17
aI1
asS'action(east, 5, 8)'
p4042
(lp4043
g17
aI1
asS'action(west, 8, 5)'
p4044
(lp4045
g17
aI1
asS'action(north, 6, 7)'
p4046
(lp4047
g17
aI1
asS'action(near, 6, 3)'
p4048
(lp4049
g17
aI1
asS'action(near, 5, 4)'
p4050
(lp4051
g17
aI1
asS'action(south, 4, 5)'
p4052
(lp4053
g17
aI1
asS'action(south, 3, 6)'
p4054
(lp4055
g17
aI1
asS'action(near, 7, 6)'
p4056
(lp4057
g17
aI1
asS'action(near, 1, 3)'
p4058
(lp4059
g17
aI1
asS'action(north, 3, 1)'
p4060
(lp4061
g17
aI1
asS'action(east, 1, 3)'
p4062
(lp4063
g17
aI1
asS'action(near, 1, 5)'
p4064
(lp4065
g17
aI1
asS'action(north, 8, 5)'
p4066
(lp4067
g17
aI1
asS'action(south, 7, 6)'
p4068
(lp4069
g17
aI1
asS'action(south, 8, 1)'
p4070
(lp4071
g17
aI1
asS'action(south, 8, 7)'
p4072
(lp4073
g17
aI1
asS'action(west, 1, 6)'
p4074
(lp4075
g17
aI1
asS'action(near, 8, 4)'
p4076
(lp4077
g17
aI1
asS'action(west, 6, 7)'
p4078
(lp4079
g17
aI1
asS'action(north, 1, 7)'
p4080
(lp4081
g17
aI1
asS'action(south, 1, 3)'
p4082
(lp4083
g17
aI1
asS'action(west, 1, 7)'
p4084
(lp4085
g17
aI1
asS'action(near, 3, 5)'
p4086
(lp4087
g17
aI1
asS'action(west, 7, 6)'
p4088
(lp4089
g17
aI1
asS'action(east, 8, 3)'
p4090
(lp4091
g17
aI1
asS'action(east, 7, 8)'
p4092
(lp4093
g17
aI1
asS'action(near, 4, 1)'
p4094
(lp4095
g17
aI1
asS'action(near, 6, 8)'
p4096
(lp4097
g17
aI1
asS'action(east, 6, 7)'
p4098
(lp4099
g17
aI1
asS'action(south, 1, 7)'
p4100
(lp4101
g17
aI1
asS'action(west, 6, 1)'
p4102
(lp4103
g17
aI1
asS'action(east, 4, 5)'
p4104
(lp4105
g17
aI1
asS'action(north, 7, 4)'
p4106
(lp4107
g17
aI1
asS'action(south, 1, 5)'
p4108
(lp4109
g17
aI1
asS'action(east, 3, 1)'
p4110
(lp4111
g17
aI1
asS'action(east, 5, 1)'
p4112
(lp4113
g17
aI1
asS'action(south, 1, 4)'
p4114
(lp4115
g17
aI1
asS'action(west, 3, 8)'
p4116
(lp4117
g17
aI1
asS'action(near, 5, 3)'
p4118
(lp4119
g17
aI1
asS'action(south, 6, 4)'
p4120
(lp4121
g17
aI1
asS'action(north, 5, 8)'
p4122
(lp4123
g17
aI1
asS'action(near, 7, 1)'
p4124
(lp4125
g17
aI1
asS'action(south, 5, 4)'
p4126
(lp4127
g17
aI1
asS'action(east, 6, 8)'
p4128
(lp4129
g17
aI1
asS'action(near, 1, 4)'
p4130
(lp4131
g17
aI1
asS'action(near, 4, 8)'
p4132
(lp4133
g17
aI1
asS'action(south, 4, 1)'
p4134
(lp4135
g17
aI1
asS'action(north, 3, 6)'
p4136
(lp4137
g17
aI1
asS'action(near, 8, 5)'
p4138
(lp4139
g17
aI1
asS'action(south, 5, 7)'
p4140
(lp4141
g17
aI1
asS'action(north, 1, 6)'
p4142
(lp4143
g17
aI1
asS'action(near, 3, 4)'
p4144
(lp4145
g17
aI1
asS'action(east, 3, 8)'
p4146
(lp4147
g17
aI1
asS'action(north, 7, 1)'
p4148
(lp4149
g17
aI1
asS'action(north, 7, 3)'
p4150
(lp4151
g17
aI1
asS'action(east, 7, 5)'
p4152
(lp4153
g17
aI1
asS'action(north, 5, 1)'
p4154
(lp4155
g17
aI1
asS'action(north, 6, 1)'
p4156
(lp4157
g17
aI1
asS'action(north, 3, 7)'
p4158
(lp4159
g17
aI1
asS'action(near, 6, 1)'
p4160
(lp4161
g17
aI1
asS'action(north, 7, 5)'
p4162
(lp4163
g17
aI1
asS'action(south, 3, 4)'
p4164
(lp4165
g17
aI1
asS'action(west, 5, 3)'
p4166
(lp4167
g17
aI1
asS'action(north, 8, 4)'
p4168
(lp4169
g17
aI1
asS'action(near, 8, 6)'
p4170
(lp4171
g17
aI1
asS'action(south, 8, 6)'
p4172
(lp4173
g17
aI1
asS'action(near, 3, 7)'
p4174
(lp4175
g17
aI1
asS'action(north, 8, 7)'
p4176
(lp4177
g17
aI1
asS'action(east, 5, 6)'
p4178
(lp4179
g17
aI1
asS'action(west, 7, 4)'
p4180
(lp4181
g17
aI1
asS'action(east, 4, 7)'
p4182
(lp4183
g17
aI1
asS'action(near, 3, 1)'
p4184
(lp4185
g17
aI1
asS'action(north, 7, 8)'
p4186
(lp4187
g17
aI1
asS'action(west, 6, 3)'
p4188
(lp4189
g17
aI1
asS'action(near, 5, 1)'
p4190
(lp4191
g17
aI1
asS'action(east, 8, 5)'
p4192
(lp4193
g17
aI1
asS'action(west, 7, 8)'
p4194
(lp4195
g17
aI1
asS'action(near, 7, 3)'
p4196
(lp4197
g17
aI1
asS'action(west, 5, 1)'
p4198
(lp4199
g17
aI1
asS'action(west, 8, 1)'
p4200
(lp4201
g17
aI1
asS'action(north, 8, 1)'
p4202
(lp4203
g17
aI1
asS'action(north, 6, 8)'
p4204
(lp4205
g17
aI1
asS'action(east, 1, 6)'
p4206
(lp4207
g17
aI1
asS'action(near, 8, 7)'
p4208
(lp4209
g17
aI1
asS'action(south, 3, 5)'
p4210
(lp4211
g17
aI1
asS'action(west, 6, 8)'
p4212
(lp4213
g17
aI1
asS'action(north, 1, 8)'
p4214
(lp4215
g17
aI1
asS'action(north, 3, 4)'
p4216
(lp4217
g17
aI1
asS'action(near, 3, 6)'
p4218
(lp4219
g17
aI1
asS'action(east, 5, 7)'
p4220
(lp4221
g17
aI1
asS'action(west, 3, 1)'
p4222
(lp4223
g17
aI1
asS'action(west, 1, 8)'
p4224
(lp4225
g17
aI1
asS'action(south, 6, 3)'
p4226
(lp4227
g17
aI1
asS'action(north, 3, 5)'
p4228
(lp4229
g17
aI1
asS'action(north, 6, 3)'
p4230
(lp4231
g17
aI1
asS'action(south, 1, 8)'
p4232
(lp4233
g17
aI1
asS'action(south, 4, 6)'
p4234
(lp4235
g17
aI1
asS'action(east, 4, 6)'
p4236
(lp4237
g17
aI1
asS'action(north, 5, 3)'
p4238
(lp4239
g17
aI1
asS'action(south, 4, 7)'
p4240
(lp4241
g17
aI1
asS'action(near, 7, 8)'
p4242
(lp4243
g17
aI1
asS'action(north, 4, 7)'
p4244
(lp4245
g17
aI1
asS'action(east, 8, 4)'
p4246
(lp4247
g17
aI1
asS'action(north, 4, 1)'
p4248
(lp4249
g17
aI1
asS'action(near, 6, 7)'
p4250
(lp4251
g17
aI1
asS'action(south, 7, 8)'
p4252
(lp4253
g17
aI1
asS'action(south, 5, 3)'
p4254
(lp4255
g17
aI1
asS'action(near, 3, 8)'
p4256
(lp4257
g17
aI1
asS'action(east, 3, 4)'
p4258
(lp4259
g17
aI1
asS'action(west, 4, 6)'
p4260
(lp4261
g17
aI1
asS'action(west, 8, 6)'
p4262
(lp4263
g17
aI1
asS'action(east, 1, 7)'
p4264
(lp4265
g17
aI1
asS'action(north, 4, 8)'
p4266
(lp4267
g17
aI1
asS'action(west, 5, 4)'
p4268
(lp4269
g17
aI1
asS'action(west, 4, 8)'
p4270
(lp4271
g17
aI1
asS'action(near, 5, 8)'
p4272
(lp4273
g17
aI1
asS'action(west, 8, 4)'
p4274
(lp4275
g17
aI1
asS'action(east, 6, 5)'
p4276
(lp4277
g17
aI1
asS'action(west, 4, 7)'
p4278
(lp4279
g17
aI1
asS'action(east, 5, 4)'
p4280
(lp4281
g17
aI1
asS'action(near, 4, 3)'
p4282
(lp4283
g17
aI1
asS'action(west, 3, 6)'
p4284
(lp4285
g17
aI1
astp4286
aag74
ag84
aa(lp4287
(lp4288
((lp4289
S'cup(0)'
p4290
aS'fork(1)'
p4291
aS'fork(3)'
p4292
aS'plate(4)'
p4293
aS'not_near(0, 1)'
p4294
aS'east(0, 1)'
p4295
aS'not_west(0, 1)'
p4296
aS'not_south(0, 1)'
p4297
aS'not_near(0, 3)'
p4298
aS'east(0, 3)'
p4299
aS'not_west(0, 3)'
p4300
aS'not_south(0, 3)'
p4301
aS'not_near(0, 4)'
p4302
aS'east(0, 4)'
p4303
aS'not_west(0, 4)'
p4304
aS'south(0, 4)'
p4305
aS'not_near(1, 0)'
p4306
aS'not_east(1, 0)'
p4307
aS'west(1, 0)'
p4308
aS'not_south(1, 0)'
p4309
aS'not_near(1, 3)'
p4310
aS'not_east(1, 3)'
p4311
aS'west(1, 3)'
p4312
aS'not_south(1, 3)'
p4313
aS'not_near(1, 4)'
p4314
aS'not_east(1, 4)'
p4315
aS'west(1, 4)'
p4316
aS'south(1, 4)'
p4317
aS'not_near(3, 0)'
p4318
aS'not_east(3, 0)'
p4319
aS'west(3, 0)'
p4320
aS'south(3, 0)'
p4321
aS'not_near(3, 1)'
p4322
aS'east(3, 1)'
p4323
aS'not_west(3, 1)'
p4324
aS'south(3, 1)'
p4325
aS'not_near(3, 4)'
p4326
aS'not_east(3, 4)'
p4327
aS'not_west(3, 4)'
p4328
aS'south(3, 4)'
p4329
aS'not_near(4, 0)'
p4330
aS'not_east(4, 0)'
p4331
aS'west(4, 0)'
p4332
aS'not_south(4, 0)'
p4333
aS'not_near(4, 1)'
p4334
aS'east(4, 1)'
p4335
aS'not_west(4, 1)'
p4336
aS'not_south(4, 1)'
p4337
aS'not_near(4, 3)'
p4338
aS'not_east(4, 3)'
p4339
aS'not_west(4, 3)'
p4340
aS'not_south(4, 3)'
p4341
a(dp4342
S'action(near, 0, 1)'
p4343
(lp4344
g17
aI1
asS'action(near, 3, 1)'
p4345
(lp4346
g17
aI1
asS'action(near, 4, 1)'
p4347
(lp4348
g17
aI1
asS'action(west, 3, 0)'
p4349
(lp4350
g17
aI1
asS'action(north, 0, 4)'
p4351
(lp4352
g17
aI1
asS'action(east, 4, 1)'
p4353
(lp4354
g17
aI1
asS'action(east, 3, 1)'
p4355
(lp4356
g17
aI1
asS'action(east, 4, 3)'
p4357
(lp4358
g17
aI1
asS'action(west, 0, 1)'
p4359
(lp4360
g17
aI1
asS'action(east, 1, 4)'
p4361
(lp4362
g17
aI1
asS'action(west, 4, 1)'
p4363
(lp4364
g17
aI1
asS'action(north, 1, 3)'
p4365
(lp4366
g17
aI1
asS'action(south, 3, 1)'
p4367
(lp4368
g17
aI1
asS'action(north, 0, 3)'
p4369
(lp4370
g17
aI1
asS'action(north, 0, 1)'
p4371
(lp4372
g17
aI1
asS'action(north, 4, 3)'
p4373
(lp4374
g17
aI1
asS'action(west, 1, 3)'
p4375
(lp4376
g17
aI1
asS'action(west, 0, 3)'
p4377
(lp4378
g17
aI1
asS'action(east, 0, 3)'
p4379
(lp4380
g17
aI1
asS'action(south, 4, 0)'
p4381
(lp4382
g17
aI1
asS'action(east, 1, 0)'
p4383
(lp4384
g17
aI1
asS'action(near, 1, 4)'
p4385
(lp4386
g17
aI1
asS'action(south, 0, 4)'
p4387
(lp4388
g17
aI1
asS'action(south, 4, 1)'
p4389
(lp4390
g17
aI1
asS'action(near, 1, 0)'
p4391
(lp4392
g17
aI1
asS'action(north, 3, 4)'
p4393
(lp4394
g17
aI1
asS'action(south, 3, 0)'
p4395
(lp4396
g17
aI1
asS'action(east, 0, 1)'
p4397
(lp4398
g17
aI1
asS'action(north, 4, 1)'
p4399
(lp4400
g17
aI1
asS'action(west, 3, 1)'
p4401
(lp4402
g17
aI1
asS'action(south, 4, 3)'
p4403
(lp4404
g17
aI1
asS'action(near, 3, 4)'
p4405
(lp4406
g22
aI60
asS'action(near, 0, 4)'
p4407
(lp4408
g17
aI1
asS'action(near, 3, 0)'
p4409
(lp4410
g17
aI1
asS'action(north, 3, 0)'
p4411
(lp4412
g17
aI1
asS'action(north, 1, 4)'
p4413
(lp4414
g17
aI1
asS'action(near, 4, 0)'
p4415
(lp4416
g17
aI1
asS'action(north, 1, 0)'
p4417
(lp4418
g17
aI1
asS'action(south, 1, 4)'
p4419
(lp4420
g17
aI1
asS'action(south, 0, 1)'
p4421
(lp4422
g17
aI1
asS'action(east, 4, 0)'
p4423
(lp4424
g17
aI1
asS'action(south, 1, 0)'
p4425
(lp4426
g17
aI1
asS'action(west, 4, 3)'
p4427
(lp4428
g17
aI1
asS'action(east, 3, 0)'
p4429
(lp4430
g17
aI1
asS'action(south, 0, 3)'
p4431
(lp4432
g17
aI1
asS'action(east, 3, 4)'
p4433
(lp4434
g17
aI1
asS'action(west, 4, 0)'
p4435
(lp4436
g17
aI1
asS'action(south, 3, 4)'
p4437
(lp4438
g17
aI1
asS'action(west, 0, 4)'
p4439
(lp4440
g17
aI1
asS'action(north, 3, 1)'
p4441
(lp4442
g17
aI1
asS'action(east, 1, 3)'
p4443
(lp4444
g17
aI1
asS'action(west, 1, 0)'
p4445
(lp4446
g17
aI1
asS'action(west, 3, 4)'
p4447
(lp4448
g17
aI1
asS'action(west, 1, 4)'
p4449
(lp4450
g17
aI1
asS'action(east, 0, 4)'
p4451
(lp4452
g17
aI1
asg31
(lp4453
g17
aI1
asS'action(near, 0, 3)'
p4454
(lp4455
g17
aI1
asS'action(near, 1, 3)'
p4456
(lp4457
g17
aI1
asS'action(south, 1, 3)'
p4458
(lp4459
g17
aI1
asS'action(near, 4, 3)'
p4460
(lp4461
g17
aI1
asS'action(north, 4, 0)'
p4462
(lp4463
g17
aI1
astp4464
a((lp4465
S'cup(0)'
p4466
aS'fork(1)'
p4467
aS'fork(3)'
p4468
aS'plate(4)'
p4469
aS'not_near(0, 1)'
p4470
aS'east(0, 1)'
p4471
aS'not_west(0, 1)'
p4472
aS'not_south(0, 1)'
p4473
aS'not_near(0, 3)'
p4474
aS'east(0, 3)'
p4475
aS'not_west(0, 3)'
p4476
aS'south(0, 3)'
p4477
aS'not_near(0, 4)'
p4478
aS'east(0, 4)'
p4479
aS'not_west(0, 4)'
p4480
aS'south(0, 4)'
p4481
aS'not_near(1, 0)'
p4482
aS'not_east(1, 0)'
p4483
aS'west(1, 0)'
p4484
aS'not_south(1, 0)'
p4485
aS'not_near(1, 3)'
p4486
aS'not_east(1, 3)'
p4487
aS'west(1, 3)'
p4488
aS'south(1, 3)'
p4489
aS'not_near(1, 4)'
p4490
aS'not_east(1, 4)'
p4491
aS'west(1, 4)'
p4492
aS'south(1, 4)'
p4493
aS'not_near(3, 0)'
p4494
aS'not_east(3, 0)'
p4495
aS'west(3, 0)'
p4496
aS'not_south(3, 0)'
p4497
aS'not_near(3, 1)'
p4498
aS'east(3, 1)'
p4499
aS'not_west(3, 1)'
p4500
aS'not_south(3, 1)'
p4501
aS'near(3, 4)'
p4502
aS'not_east(3, 4)'
p4503
aS'not_west(3, 4)'
p4504
aS'not_south(3, 4)'
p4505
aS'not_near(4, 0)'
p4506
aS'not_east(4, 0)'
p4507
aS'west(4, 0)'
p4508
aS'not_south(4, 0)'
p4509
aS'not_near(4, 1)'
p4510
aS'east(4, 1)'
p4511
aS'not_west(4, 1)'
p4512
aS'not_south(4, 1)'
p4513
aS'near(4, 3)'
p4514
aS'not_east(4, 3)'
p4515
aS'not_west(4, 3)'
p4516
aS'south(4, 3)'
p4517
a(dp4518
S'action(near, 0, 1)'
p4519
(lp4520
g17
aI1
asS'action(near, 3, 1)'
p4521
(lp4522
g17
aI1
asS'action(near, 4, 1)'
p4523
(lp4524
g17
aI1
asS'action(west, 3, 0)'
p4525
(lp4526
g17
aI1
asS'action(north, 0, 4)'
p4527
(lp4528
g17
aI1
asS'action(east, 4, 1)'
p4529
(lp4530
g17
aI1
asS'action(east, 3, 1)'
p4531
(lp4532
g17
aI1
asS'action(east, 4, 3)'
p4533
(lp4534
g17
aI1
asS'action(west, 0, 1)'
p4535
(lp4536
g17
aI1
asS'action(east, 1, 4)'
p4537
(lp4538
g17
aI1
asS'action(west, 4, 1)'
p4539
(lp4540
g17
aI1
asS'action(north, 1, 3)'
p4541
(lp4542
g17
aI1
asS'action(south, 3, 1)'
p4543
(lp4544
g17
aI1
asS'action(north, 0, 3)'
p4545
(lp4546
g17
aI1
asS'action(north, 0, 1)'
p4547
(lp4548
g17
aI1
asS'action(north, 4, 3)'
p4549
(lp4550
g17
aI1
asS'action(west, 1, 3)'
p4551
(lp4552
g17
aI1
asS'action(west, 0, 3)'
p4553
(lp4554
g17
aI1
asS'action(east, 0, 3)'
p4555
(lp4556
g17
aI1
asS'action(south, 4, 0)'
p4557
(lp4558
g17
aI1
asS'action(east, 1, 0)'
p4559
(lp4560
g17
aI1
asS'action(near, 1, 4)'
p4561
(lp4562
g17
aI1
asS'action(south, 0, 4)'
p4563
(lp4564
g17
aI1
asS'action(south, 4, 1)'
p4565
(lp4566
g17
aI1
asS'action(near, 1, 0)'
p4567
(lp4568
g17
aI1
asS'action(north, 3, 4)'
p4569
(lp4570
g17
aI1
asS'action(south, 3, 0)'
p4571
(lp4572
g17
aI1
asS'action(east, 0, 1)'
p4573
(lp4574
g17
aI1
asS'action(north, 4, 1)'
p4575
(lp4576
g17
aI1
asS'action(west, 3, 1)'
p4577
(lp4578
g17
aI1
asS'action(south, 4, 3)'
p4579
(lp4580
g17
aI1
asS'action(near, 3, 4)'
p4581
(lp4582
g17
aI1
asS'action(near, 0, 4)'
p4583
(lp4584
g17
aI1
asS'action(near, 3, 0)'
p4585
(lp4586
g17
aI1
asS'action(north, 3, 0)'
p4587
(lp4588
g17
aI1
asS'action(north, 1, 4)'
p4589
(lp4590
g17
aI1
asS'action(near, 4, 0)'
p4591
(lp4592
g17
aI1
asS'action(north, 1, 0)'
p4593
(lp4594
g17
aI1
asS'action(south, 1, 4)'
p4595
(lp4596
g17
aI1
asS'action(south, 0, 1)'
p4597
(lp4598
g17
aI1
asS'action(east, 4, 0)'
p4599
(lp4600
g17
aI1
asS'action(south, 1, 0)'
p4601
(lp4602
g17
aI1
asS'action(west, 4, 3)'
p4603
(lp4604
g17
aI1
asS'action(east, 3, 0)'
p4605
(lp4606
g17
aI1
asS'action(south, 0, 3)'
p4607
(lp4608
g17
aI1
asS'action(east, 3, 4)'
p4609
(lp4610
g17
aI1
asS'action(west, 4, 0)'
p4611
(lp4612
g17
aI1
asS'action(south, 3, 4)'
p4613
(lp4614
g17
aI1
asS'action(west, 0, 4)'
p4615
(lp4616
g17
aI1
asS'action(north, 3, 1)'
p4617
(lp4618
g17
aI1
asS'action(east, 1, 3)'
p4619
(lp4620
g17
aI1
asS'action(west, 1, 0)'
p4621
(lp4622
g17
aI1
asS'action(west, 3, 4)'
p4623
(lp4624
g17
aI1
asS'action(west, 1, 4)'
p4625
(lp4626
g17
aI1
asS'action(east, 0, 4)'
p4627
(lp4628
g17
aI1
asg31
(lp4629
g22
aI60
asS'action(near, 0, 3)'
p4630
(lp4631
g17
aI1
asS'action(near, 1, 3)'
p4632
(lp4633
g17
aI1
asS'action(south, 1, 3)'
p4634
(lp4635
g17
aI1
asS'action(near, 4, 3)'
p4636
(lp4637
g17
aI1
asS'action(north, 4, 0)'
p4638
(lp4639
g17
aI1
astp4640
aag74
ag84
aa(lp4641
(lp4642
((lp4643
S'cup(0)'
p4644
aS'fork(1)'
p4645
aS'fork(3)'
p4646
aS'not_near(0, 1)'
p4647
aS'east(0, 1)'
p4648
aS'not_west(0, 1)'
p4649
aS'south(0, 1)'
p4650
aS'not_near(0, 3)'
p4651
aS'east(0, 3)'
p4652
aS'not_west(0, 3)'
p4653
aS'south(0, 3)'
p4654
aS'not_near(1, 0)'
p4655
aS'not_east(1, 0)'
p4656
aS'west(1, 0)'
p4657
aS'not_south(1, 0)'
p4658
aS'not_near(1, 3)'
p4659
aS'not_east(1, 3)'
p4660
aS'west(1, 3)'
p4661
aS'south(1, 3)'
p4662
aS'not_near(3, 0)'
p4663
aS'not_east(3, 0)'
p4664
aS'west(3, 0)'
p4665
aS'not_south(3, 0)'
p4666
aS'not_near(3, 1)'
p4667
aS'east(3, 1)'
p4668
aS'not_west(3, 1)'
p4669
aS'not_south(3, 1)'
p4670
a(dp4671
S'action(near, 0, 1)'
p4672
(lp4673
g17
aI1
asS'action(near, 3, 1)'
p4674
(lp4675
g17
aI1
asS'action(west, 3, 0)'
p4676
(lp4677
g17
aI1
asS'action(north, 1, 3)'
p4678
(lp4679
g17
aI1
asS'action(east, 3, 1)'
p4680
(lp4681
g17
aI1
asS'action(west, 0, 1)'
p4682
(lp4683
g17
aI1
asS'action(south, 1, 3)'
p4684
(lp4685
g17
aI1
asS'action(north, 3, 0)'
p4686
(lp4687
g17
aI1
asS'action(south, 3, 1)'
p4688
(lp4689
g17
aI1
asS'action(north, 0, 3)'
p4690
(lp4691
g17
aI1
asS'action(north, 0, 1)'
p4692
(lp4693
g17
aI1
asS'action(west, 1, 3)'
p4694
(lp4695
g17
aI1
asS'action(west, 0, 3)'
p4696
(lp4697
g17
aI1
asS'action(east, 0, 3)'
p4698
(lp4699
g17
aI1
asS'action(east, 1, 0)'
p4700
(lp4701
g17
aI1
asS'action(near, 1, 0)'
p4702
(lp4703
g17
aI1
asS'action(east, 0, 1)'
p4704
(lp4705
g17
aI1
asS'action(south, 1, 0)'
p4706
(lp4707
g17
aI1
asS'action(west, 3, 1)'
p4708
(lp4709
g17
aI1
asS'action(near, 3, 0)'
p4710
(lp4711
g17
aI1
asS'action(north, 1, 0)'
p4712
(lp4713
g17
aI1
asS'action(south, 0, 1)'
p4714
(lp4715
g17
aI1
asS'action(east, 3, 0)'
p4716
(lp4717
g17
aI1
asS'action(south, 0, 3)'
p4718
(lp4719
g17
aI1
asS'action(south, 3, 0)'
p4720
(lp4721
g17
aI1
asS'action(north, 3, 1)'
p4722
(lp4723
g17
aI1
asS'action(east, 1, 3)'
p4724
(lp4725
g17
aI1
asS'action(west, 1, 0)'
p4726
(lp4727
g17
aI1
asg31
(lp4728
g22
aI30
asS'action(near, 0, 3)'
p4729
(lp4730
g17
aI1
asS'action(near, 1, 3)'
p4731
(lp4732
g17
aI1
astp4733
aag74
ag84
aa(lp4734
(lp4735
((lp4736
S'plate(8)'
p4737
aS'fork(3)'
p4738
aS'plate(4)'
p4739
aS'not_near(8, 3)'
p4740
aS'east(8, 3)'
p4741
aS'not_west(8, 3)'
p4742
aS'south(8, 3)'
p4743
aS'not_near(8, 4)'
p4744
aS'not_east(8, 4)'
p4745
aS'west(8, 4)'
p4746
aS'south(8, 4)'
p4747
aS'not_near(3, 8)'
p4748
aS'not_east(3, 8)'
p4749
aS'west(3, 8)'
p4750
aS'not_south(3, 8)'
p4751
aS'not_near(3, 4)'
p4752
aS'not_east(3, 4)'
p4753
aS'west(3, 4)'
p4754
aS'not_south(3, 4)'
p4755
aS'not_near(4, 8)'
p4756
aS'east(4, 8)'
p4757
aS'not_west(4, 8)'
p4758
aS'not_south(4, 8)'
p4759
aS'not_near(4, 3)'
p4760
aS'east(4, 3)'
p4761
aS'not_west(4, 3)'
p4762
aS'not_south(4, 3)'
p4763
a(dp4764
S'action(east, 8, 3)'
p4765
(lp4766
g17
aI1
asS'action(west, 4, 3)'
p4767
(lp4768
g17
aI1
asS'action(west, 8, 3)'
p4769
(lp4770
g17
aI1
asg31
(lp4771
g17
aI1
asS'action(east, 4, 3)'
p4772
(lp4773
g17
aI1
asS'action(west, 3, 8)'
p4774
(lp4775
g17
aI1
asS'action(near, 4, 8)'
p4776
(lp4777
g17
aI1
asS'action(near, 8, 3)'
p4778
(lp4779
g17
aI1
asS'action(north, 3, 4)'
p4780
(lp4781
g17
aI1
asS'action(north, 3, 8)'
p4782
(lp4783
g17
aI1
asS'action(near, 3, 4)'
p4784
(lp4785
g17
aI1
asS'action(north, 8, 3)'
p4786
(lp4787
g17
aI1
asS'action(east, 3, 8)'
p4788
(lp4789
g17
aI1
asS'action(north, 4, 3)'
p4790
(lp4791
g17
aI1
asS'action(west, 8, 4)'
p4792
(lp4793
g17
aI1
asS'action(east, 8, 4)'
p4794
(lp4795
g17
aI1
asS'action(south, 4, 3)'
p4796
(lp4797
g17
aI1
asS'action(west, 4, 8)'
p4798
(lp4799
g17
aI1
asS'action(near, 3, 8)'
p4800
(lp4801
g22
aI14
asS'action(east, 3, 4)'
p4802
(lp4803
g17
aI1
asS'action(south, 3, 4)'
p4804
(lp4805
g22
aI14
asS'action(north, 4, 8)'
p4806
(lp4807
g17
aI1
asS'action(east, 4, 8)'
p4808
(lp4809
g17
aI1
asS'action(south, 8, 3)'
p4810
(lp4811
g17
aI1
asS'action(south, 4, 8)'
p4812
(lp4813
g17
aI1
asS'action(west, 3, 4)'
p4814
(lp4815
g17
aI1
asS'action(south, 8, 4)'
p4816
(lp4817
g17
aI1
asS'action(near, 8, 4)'
p4818
(lp4819
g17
aI1
asS'action(south, 3, 8)'
p4820
(lp4821
g17
aI1
asS'action(near, 4, 3)'
p4822
(lp4823
g17
aI1
asS'action(north, 8, 4)'
p4824
(lp4825
g17
aI1
astp4826
a((lp4827
S'plate(8)'
p4828
aS'fork(3)'
p4829
aS'plate(4)'
p4830
aS'near(8, 3)'
p4831
aS'east(8, 3)'
p4832
aS'not_west(8, 3)'
p4833
aS'not_south(8, 3)'
p4834
aS'not_near(8, 4)'
p4835
aS'not_east(8, 4)'
p4836
aS'west(8, 4)'
p4837
aS'south(8, 4)'
p4838
aS'near(3, 8)'
p4839
aS'not_east(3, 8)'
p4840
aS'west(3, 8)'
p4841
aS'not_south(3, 8)'
p4842
aS'not_near(3, 4)'
p4843
aS'not_east(3, 4)'
p4844
aS'west(3, 4)'
p4845
aS'south(3, 4)'
p4846
aS'not_near(4, 8)'
p4847
aS'east(4, 8)'
p4848
aS'not_west(4, 8)'
p4849
aS'not_south(4, 8)'
p4850
aS'not_near(4, 3)'
p4851
aS'east(4, 3)'
p4852
aS'not_west(4, 3)'
p4853
aS'not_south(4, 3)'
p4854
a(dp4855
S'action(east, 8, 3)'
p4856
(lp4857
g17
aI1
asS'action(west, 4, 3)'
p4858
(lp4859
g17
aI1
asS'action(west, 8, 3)'
p4860
(lp4861
g17
aI1
asg31
(lp4862
g22
aI30
asS'action(east, 4, 3)'
p4863
(lp4864
g17
aI1
asS'action(west, 3, 8)'
p4865
(lp4866
g17
aI1
asS'action(near, 4, 8)'
p4867
(lp4868
g17
aI1
asS'action(near, 8, 3)'
p4869
(lp4870
g17
aI1
asS'action(north, 3, 4)'
p4871
(lp4872
g17
aI1
asS'action(north, 3, 8)'
p4873
(lp4874
g17
aI1
asS'action(near, 3, 4)'
p4875
(lp4876
g17
aI1
asS'action(north, 8, 3)'
p4877
(lp4878
g17
aI1
asS'action(east, 3, 8)'
p4879
(lp4880
g17
aI1
asS'action(north, 4, 3)'
p4881
(lp4882
g17
aI1
asS'action(west, 8, 4)'
p4883
(lp4884
g17
aI1
asS'action(east, 8, 4)'
p4885
(lp4886
g17
aI1
asS'action(south, 4, 3)'
p4887
(lp4888
g17
aI1
asS'action(west, 4, 8)'
p4889
(lp4890
g17
aI1
asS'action(near, 3, 8)'
p4891
(lp4892
g17
aI1
asS'action(east, 3, 4)'
p4893
(lp4894
g17
aI1
asS'action(south, 3, 4)'
p4895
(lp4896
g17
aI1
asS'action(north, 4, 8)'
p4897
(lp4898
g17
aI1
asS'action(east, 4, 8)'
p4899
(lp4900
g17
aI1
asS'action(south, 8, 3)'
p4901
(lp4902
g17
aI1
asS'action(south, 4, 8)'
p4903
(lp4904
g17
aI1
asS'action(west, 3, 4)'
p4905
(lp4906
g17
aI1
asS'action(south, 8, 4)'
p4907
(lp4908
g17
aI1
asS'action(near, 8, 4)'
p4909
(lp4910
g17
aI1
asS'action(south, 3, 8)'
p4911
(lp4912
g17
aI1
asS'action(near, 4, 3)'
p4913
(lp4914
g17
aI1
asS'action(north, 8, 4)'
p4915
(lp4916
g17
aI1
astp4917
aag74
ag84
aa(lp4918
(lp4919
((lp4920
S'plate(8)'
p4921
aS'plate(4)'
p4922
aS'plate(5)'
p4923
aS'not_near(8, 4)'
p4924
aS'not_east(8, 4)'
p4925
aS'west(8, 4)'
p4926
aS'south(8, 4)'
p4927
aS'near(8, 5)'
p4928
aS'not_east(8, 5)'
p4929
aS'not_west(8, 5)'
p4930
aS'south(8, 5)'
p4931
aS'not_near(4, 8)'
p4932
aS'east(4, 8)'
p4933
aS'not_west(4, 8)'
p4934
aS'not_south(4, 8)'
p4935
aS'not_near(4, 5)'
p4936
aS'east(4, 5)'
p4937
aS'not_west(4, 5)'
p4938
aS'not_south(4, 5)'
p4939
aS'near(5, 8)'
p4940
aS'not_east(5, 8)'
p4941
aS'not_west(5, 8)'
p4942
aS'not_south(5, 8)'
p4943
aS'not_near(5, 4)'
p4944
aS'not_east(5, 4)'
p4945
aS'west(5, 4)'
p4946
aS'not_south(5, 4)'
p4947
a(dp4948
S'action(near, 4, 5)'
p4949
(lp4950
g17
aI1
asS'action(east, 4, 5)'
p4951
(lp4952
g17
aI1
asS'action(north, 5, 4)'
p4953
(lp4954
g17
aI1
asS'action(west, 5, 8)'
p4955
(lp4956
g17
aI1
asg31
(lp4957
g22
aI30
asS'action(west, 8, 5)'
p4958
(lp4959
g17
aI1
asS'action(south, 5, 8)'
p4960
(lp4961
g17
aI1
asS'action(north, 5, 8)'
p4962
(lp4963
g17
aI1
asS'action(west, 5, 4)'
p4964
(lp4965
g17
aI1
asS'action(south, 5, 4)'
p4966
(lp4967
g17
aI1
asS'action(near, 4, 8)'
p4968
(lp4969
g17
aI1
asS'action(near, 8, 5)'
p4970
(lp4971
g17
aI1
asS'action(south, 8, 5)'
p4972
(lp4973
g17
aI1
asS'action(north, 8, 5)'
p4974
(lp4975
g17
aI1
asS'action(south, 4, 5)'
p4976
(lp4977
g17
aI1
asS'action(west, 8, 4)'
p4978
(lp4979
g17
aI1
asS'action(north, 4, 5)'
p4980
(lp4981
g17
aI1
asS'action(east, 8, 4)'
p4982
(lp4983
g17
aI1
asS'action(east, 5, 8)'
p4984
(lp4985
g17
aI1
asS'action(west, 4, 8)'
p4986
(lp4987
g17
aI1
asS'action(near, 5, 4)'
p4988
(lp4989
g17
aI1
asS'action(north, 4, 8)'
p4990
(lp4991
g17
aI1
asS'action(east, 4, 8)'
p4992
(lp4993
g17
aI1
asS'action(south, 4, 8)'
p4994
(lp4995
g17
aI1
asS'action(near, 5, 8)'
p4996
(lp4997
g17
aI1
asS'action(west, 4, 5)'
p4998
(lp4999
g17
aI1
asS'action(east, 8, 5)'
p5000
(lp5001
g17
aI1
asS'action(south, 8, 4)'
p5002
(lp5003
g17
aI1
asS'action(near, 8, 4)'
p5004
(lp5005
g17
aI1
asS'action(east, 5, 4)'
p5006
(lp5007
g17
aI1
asS'action(north, 8, 4)'
p5008
(lp5009
g17
aI1
astp5010
aag74
ag84
aa(lp5011
(lp5012
((lp5013
S'fork(1)'
p5014
aS'fork(3)'
p5015
aS'plate(4)'
p5016
aS'plate(5)'
p5017
aS'not_near(1, 3)'
p5018
aS'east(1, 3)'
p5019
aS'not_west(1, 3)'
p5020
aS'not_south(1, 3)'
p5021
aS'not_near(1, 4)'
p5022
aS'not_east(1, 4)'
p5023
aS'not_west(1, 4)'
p5024
aS'south(1, 4)'
p5025
aS'not_near(1, 5)'
p5026
aS'east(1, 5)'
p5027
aS'not_west(1, 5)'
p5028
aS'south(1, 5)'
p5029
aS'not_near(3, 1)'
p5030
aS'not_east(3, 1)'
p5031
aS'west(3, 1)'
p5032
aS'not_south(3, 1)'
p5033
aS'not_near(3, 4)'
p5034
aS'not_east(3, 4)'
p5035
aS'west(3, 4)'
p5036
aS'south(3, 4)'
p5037
aS'not_near(3, 5)'
p5038
aS'not_east(3, 5)'
p5039
aS'not_west(3, 5)'
p5040
aS'south(3, 5)'
p5041
aS'not_near(4, 1)'
p5042
aS'not_east(4, 1)'
p5043
aS'not_west(4, 1)'
p5044
aS'not_south(4, 1)'
p5045
aS'not_near(4, 3)'
p5046
aS'east(4, 3)'
p5047
aS'not_west(4, 3)'
p5048
aS'not_south(4, 3)'
p5049
aS'not_near(4, 5)'
p5050
aS'east(4, 5)'
p5051
aS'not_west(4, 5)'
p5052
aS'not_south(4, 5)'
p5053
aS'not_near(5, 1)'
p5054
aS'not_east(5, 1)'
p5055
aS'west(5, 1)'
p5056
aS'not_south(5, 1)'
p5057
aS'not_near(5, 3)'
p5058
aS'not_east(5, 3)'
p5059
aS'not_west(5, 3)'
p5060
aS'not_south(5, 3)'
p5061
aS'not_near(5, 4)'
p5062
aS'not_east(5, 4)'
p5063
aS'west(5, 4)'
p5064
aS'not_south(5, 4)'
p5065
a(dp5066
S'action(north, 1, 5)'
p5067
(lp5068
g17
aI1
asS'action(near, 3, 1)'
p5069
(lp5070
g17
aI1
asS'action(near, 4, 1)'
p5071
(lp5072
g17
aI1
asS'action(west, 4, 1)'
p5073
(lp5074
g17
aI1
asS'action(near, 4, 5)'
p5075
(lp5076
g17
aI1
asS'action(east, 4, 5)'
p5077
(lp5078
g17
aI1
asS'action(near, 5, 1)'
p5079
(lp5080
g17
aI1
asS'action(north, 5, 4)'
p5081
(lp5082
g17
aI1
asS'action(east, 4, 1)'
p5083
(lp5084
g17
aI1
asS'action(east, 3, 1)'
p5085
(lp5086
g17
aI1
asS'action(east, 4, 3)'
p5087
(lp5088
g17
aI1
asS'action(east, 3, 5)'
p5089
(lp5090
g17
aI1
asS'action(east, 1, 4)'
p5091
(lp5092
g17
aI1
asS'action(south, 1, 5)'
p5093
(lp5094
g17
aI1
asS'action(west, 5, 1)'
p5095
(lp5096
g17
aI1
asS'action(near, 5, 3)'
p5097
(lp5098
g17
aI1
asS'action(north, 1, 3)'
p5099
(lp5100
g17
aI1
asS'action(south, 3, 1)'
p5101
(lp5102
g17
aI1
asS'action(north, 4, 3)'
p5103
(lp5104
g17
aI1
asS'action(west, 1, 3)'
p5105
(lp5106
g17
aI1
asS'action(west, 4, 5)'
p5107
(lp5108
g17
aI1
asS'action(south, 5, 4)'
p5109
(lp5110
g17
aI1
asS'action(near, 1, 4)'
p5111
(lp5112
g17
aI1
asS'action(south, 3, 5)'
p5113
(lp5114
g17
aI1
asS'action(west, 1, 5)'
p5115
(lp5116
g17
aI1
asS'action(south, 5, 1)'
p5117
(lp5118
g17
aI1
asS'action(east, 5, 3)'
p5119
(lp5120
g17
aI1
asS'action(south, 3, 4)'
p5121
(lp5122
g17
aI1
asS'action(west, 3, 5)'
p5123
(lp5124
g17
aI1
asS'action(north, 4, 1)'
p5125
(lp5126
g17
aI1
asS'action(north, 3, 4)'
p5127
(lp5128
g17
aI1
asS'action(west, 3, 1)'
p5129
(lp5130
g17
aI1
asS'action(south, 4, 3)'
p5131
(lp5132
g17
aI1
asS'action(near, 3, 4)'
p5133
(lp5134
g17
aI1
asS'action(north, 3, 5)'
p5135
(lp5136
g17
aI1
asS'action(east, 5, 1)'
p5137
(lp5138
g17
aI1
asS'action(north, 1, 4)'
p5139
(lp5140
g17
aI1
asS'action(north, 5, 3)'
p5141
(lp5142
g17
aI1
asS'action(south, 1, 4)'
p5143
(lp5144
g17
aI1
asS'action(south, 4, 5)'
p5145
(lp5146
g17
aI1
asS'action(north, 4, 5)'
p5147
(lp5148
g17
aI1
asS'action(north, 5, 1)'
p5149
(lp5150
g17
aI1
asS'action(south, 4, 1)'
p5151
(lp5152
g17
aI1
asS'action(west, 4, 3)'
p5153
(lp5154
g17
aI1
asS'action(near, 5, 4)'
p5155
(lp5156
g17
aI1
asS'action(east, 3, 4)'
p5157
(lp5158
g17
aI1
asS'action(east, 1, 5)'
p5159
(lp5160
g17
aI1
asS'action(west, 5, 3)'
p5161
(lp5162
g17
aI1
asS'action(north, 3, 1)'
p5163
(lp5164
g17
aI1
asS'action(east, 1, 3)'
p5165
(lp5166
g17
aI1
asS'action(near, 1, 5)'
p5167
(lp5168
g17
aI1
asS'action(west, 5, 4)'
p5169
(lp5170
g17
aI1
asS'action(west, 3, 4)'
p5171
(lp5172
g17
aI1
asS'action(west, 1, 4)'
p5173
(lp5174
g17
aI1
asg31
(lp5175
g17
aI1
asS'action(south, 5, 3)'
p5176
(lp5177
g17
aI1
asS'action(near, 1, 3)'
p5178
(lp5179
g17
aI1
asS'action(south, 1, 3)'
p5180
(lp5181
g17
aI1
asS'action(east, 5, 4)'
p5182
(lp5183
g17
aI1
asS'action(near, 4, 3)'
p5184
(lp5185
g17
aI1
asS'action(near, 3, 5)'
p5186
(lp5187
g22
aI60
astp5188
a((lp5189
S'fork(1)'
p5190
aS'fork(3)'
p5191
aS'plate(4)'
p5192
aS'plate(5)'
p5193
aS'not_near(1, 3)'
p5194
aS'east(1, 3)'
p5195
aS'not_west(1, 3)'
p5196
aS'south(1, 3)'
p5197
aS'not_near(1, 4)'
p5198
aS'not_east(1, 4)'
p5199
aS'not_west(1, 4)'
p5200
aS'south(1, 4)'
p5201
aS'not_near(1, 5)'
p5202
aS'east(1, 5)'
p5203
aS'not_west(1, 5)'
p5204
aS'south(1, 5)'
p5205
aS'not_near(3, 1)'
p5206
aS'not_east(3, 1)'
p5207
aS'west(3, 1)'
p5208
aS'not_south(3, 1)'
p5209
aS'not_near(3, 4)'
p5210
aS'not_east(3, 4)'
p5211
aS'west(3, 4)'
p5212
aS'south(3, 4)'
p5213
aS'near(3, 5)'
p5214
aS'not_east(3, 5)'
p5215
aS'not_west(3, 5)'
p5216
aS'south(3, 5)'
p5217
aS'not_near(4, 1)'
p5218
aS'not_east(4, 1)'
p5219
aS'not_west(4, 1)'
p5220
aS'not_south(4, 1)'
p5221
aS'not_near(4, 3)'
p5222
aS'east(4, 3)'
p5223
aS'not_west(4, 3)'
p5224
aS'not_south(4, 3)'
p5225
aS'not_near(4, 5)'
p5226
aS'east(4, 5)'
p5227
aS'not_west(4, 5)'
p5228
aS'not_south(4, 5)'
p5229
aS'not_near(5, 1)'
p5230
aS'not_east(5, 1)'
p5231
aS'west(5, 1)'
p5232
aS'not_south(5, 1)'
p5233
aS'near(5, 3)'
p5234
aS'not_east(5, 3)'
p5235
aS'not_west(5, 3)'
p5236
aS'not_south(5, 3)'
p5237
aS'not_near(5, 4)'
p5238
aS'not_east(5, 4)'
p5239
aS'west(5, 4)'
p5240
aS'not_south(5, 4)'
p5241
a(dp5242
S'action(north, 1, 5)'
p5243
(lp5244
g17
aI1
asS'action(near, 3, 1)'
p5245
(lp5246
g17
aI1
asS'action(near, 4, 1)'
p5247
(lp5248
g17
aI1
asS'action(west, 4, 1)'
p5249
(lp5250
g17
aI1
asS'action(near, 4, 5)'
p5251
(lp5252
g17
aI1
asS'action(east, 4, 5)'
p5253
(lp5254
g17
aI1
asS'action(near, 5, 1)'
p5255
(lp5256
g17
aI1
asS'action(north, 5, 4)'
p5257
(lp5258
g17
aI1
asS'action(east, 4, 1)'
p5259
(lp5260
g17
aI1
asS'action(east, 3, 1)'
p5261
(lp5262
g17
aI1
asS'action(east, 4, 3)'
p5263
(lp5264
g17
aI1
asS'action(east, 3, 5)'
p5265
(lp5266
g17
aI1
asS'action(east, 1, 4)'
p5267
(lp5268
g22
aI29
asS'action(south, 1, 5)'
p5269
(lp5270
g17
aI1
asS'action(west, 5, 1)'
p5271
(lp5272
g17
aI1
asS'action(near, 5, 3)'
p5273
(lp5274
g17
aI1
asS'action(north, 1, 3)'
p5275
(lp5276
g17
aI1
asS'action(south, 3, 1)'
p5277
(lp5278
g17
aI1
asS'action(north, 4, 3)'
p5279
(lp5280
g17
aI1
asS'action(west, 1, 3)'
p5281
(lp5282
g17
aI1
asS'action(west, 4, 5)'
p5283
(lp5284
g17
aI1
asS'action(south, 5, 4)'
p5285
(lp5286
g17
aI1
asS'action(near, 1, 4)'
p5287
(lp5288
g22
aI29
asS'action(south, 3, 5)'
p5289
(lp5290
g17
aI1
asS'action(west, 1, 5)'
p5291
(lp5292
g17
aI1
asS'action(south, 5, 1)'
p5293
(lp5294
g17
aI1
asS'action(east, 5, 3)'
p5295
(lp5296
g17
aI1
asS'action(south, 3, 4)'
p5297
(lp5298
g17
aI1
asS'action(west, 3, 5)'
p5299
(lp5300
g17
aI1
asS'action(north, 4, 1)'
p5301
(lp5302
g17
aI1
asS'action(north, 3, 4)'
p5303
(lp5304
g17
aI1
asS'action(west, 3, 1)'
p5305
(lp5306
g17
aI1
asS'action(south, 4, 3)'
p5307
(lp5308
g17
aI1
asS'action(near, 3, 4)'
p5309
(lp5310
g17
aI1
asS'action(north, 3, 5)'
p5311
(lp5312
g17
aI1
asS'action(east, 5, 1)'
p5313
(lp5314
g17
aI1
asS'action(north, 1, 4)'
p5315
(lp5316
g17
aI1
asS'action(north, 5, 3)'
p5317
(lp5318
g17
aI1
asS'action(south, 1, 4)'
p5319
(lp5320
g17
aI1
asS'action(south, 4, 5)'
p5321
(lp5322
g17
aI1
asS'action(north, 4, 5)'
p5323
(lp5324
g17
aI1
asS'action(north, 5, 1)'
p5325
(lp5326
g17
aI1
asS'action(south, 4, 1)'
p5327
(lp5328
g17
aI1
asS'action(west, 4, 3)'
p5329
(lp5330
g17
aI1
asS'action(near, 5, 4)'
p5331
(lp5332
g17
aI1
asS'action(east, 3, 4)'
p5333
(lp5334
g17
aI1
asS'action(east, 1, 5)'
p5335
(lp5336
g17
aI1
asS'action(west, 5, 3)'
p5337
(lp5338
g17
aI1
asS'action(north, 3, 1)'
p5339
(lp5340
g17
aI1
asS'action(east, 1, 3)'
p5341
(lp5342
g17
aI1
asS'action(near, 1, 5)'
p5343
(lp5344
g17
aI1
asS'action(west, 5, 4)'
p5345
(lp5346
g17
aI1
asS'action(west, 3, 4)'
p5347
(lp5348
g17
aI1
asS'action(west, 1, 4)'
p5349
(lp5350
g17
aI1
asg31
(lp5351
g17
aI1
asS'action(south, 5, 3)'
p5352
(lp5353
g17
aI1
asS'action(near, 1, 3)'
p5354
(lp5355
g17
aI1
asS'action(south, 1, 3)'
p5356
(lp5357
g17
aI1
asS'action(east, 5, 4)'
p5358
(lp5359
g17
aI1
asS'action(near, 4, 3)'
p5360
(lp5361
g17
aI1
asS'action(near, 3, 5)'
p5362
(lp5363
g17
aI1
astp5364
a((lp5365
S'fork(1)'
p5366
aS'fork(3)'
p5367
aS'plate(4)'
p5368
aS'plate(5)'
p5369
aS'not_near(1, 3)'
p5370
aS'east(1, 3)'
p5371
aS'not_west(1, 3)'
p5372
aS'not_south(1, 3)'
p5373
aS'near(1, 4)'
p5374
aS'east(1, 4)'
p5375
aS'not_west(1, 4)'
p5376
aS'not_south(1, 4)'
p5377
aS'not_near(1, 5)'
p5378
aS'east(1, 5)'
p5379
aS'not_west(1, 5)'
p5380
aS'not_south(1, 5)'
p5381
aS'not_near(3, 1)'
p5382
aS'not_east(3, 1)'
p5383
aS'west(3, 1)'
p5384
aS'south(3, 1)'
p5385
aS'not_near(3, 4)'
p5386
aS'not_east(3, 4)'
p5387
aS'west(3, 4)'
p5388
aS'south(3, 4)'
p5389
aS'near(3, 5)'
p5390
aS'not_east(3, 5)'
p5391
aS'not_west(3, 5)'
p5392
aS'south(3, 5)'
p5393
aS'near(4, 1)'
p5394
aS'not_east(4, 1)'
p5395
aS'west(4, 1)'
p5396
aS'not_south(4, 1)'
p5397
aS'not_near(4, 3)'
p5398
aS'east(4, 3)'
p5399
aS'not_west(4, 3)'
p5400
aS'not_south(4, 3)'
p5401
aS'not_near(4, 5)'
p5402
aS'east(4, 5)'
p5403
aS'not_west(4, 5)'
p5404
aS'not_south(4, 5)'
p5405
aS'not_near(5, 1)'
p5406
aS'not_east(5, 1)'
p5407
aS'west(5, 1)'
p5408
aS'not_south(5, 1)'
p5409
aS'near(5, 3)'
p5410
aS'not_east(5, 3)'
p5411
aS'not_west(5, 3)'
p5412
aS'not_south(5, 3)'
p5413
aS'not_near(5, 4)'
p5414
aS'not_east(5, 4)'
p5415
aS'west(5, 4)'
p5416
aS'not_south(5, 4)'
p5417
a(dp5418
S'action(north, 1, 5)'
p5419
(lp5420
g17
aI1
asS'action(near, 3, 1)'
p5421
(lp5422
g17
aI1
asS'action(near, 4, 1)'
p5423
(lp5424
g17
aI1
asS'action(west, 4, 1)'
p5425
(lp5426
g17
aI1
asS'action(near, 4, 5)'
p5427
(lp5428
g17
aI1
asS'action(east, 4, 5)'
p5429
(lp5430
g17
aI1
asS'action(near, 5, 1)'
p5431
(lp5432
g17
aI1
asS'action(north, 5, 4)'
p5433
(lp5434
g17
aI1
asS'action(east, 4, 1)'
p5435
(lp5436
g17
aI1
asS'action(east, 3, 1)'
p5437
(lp5438
g17
aI1
asS'action(east, 4, 3)'
p5439
(lp5440
g17
aI1
asS'action(east, 3, 5)'
p5441
(lp5442
g17
aI1
asS'action(east, 1, 4)'
p5443
(lp5444
g17
aI1
asS'action(south, 1, 5)'
p5445
(lp5446
g17
aI1
asS'action(west, 5, 1)'
p5447
(lp5448
g17
aI1
asS'action(near, 5, 3)'
p5449
(lp5450
g17
aI1
asS'action(north, 1, 3)'
p5451
(lp5452
g17
aI1
asS'action(south, 3, 1)'
p5453
(lp5454
g17
aI1
asS'action(north, 4, 3)'
p5455
(lp5456
g17
aI1
asS'action(west, 1, 3)'
p5457
(lp5458
g17
aI1
asS'action(west, 4, 5)'
p5459
(lp5460
g17
aI1
asS'action(south, 5, 4)'
p5461
(lp5462
g17
aI1
asS'action(near, 1, 4)'
p5463
(lp5464
g17
aI1
asS'action(south, 3, 5)'
p5465
(lp5466
g17
aI1
asS'action(west, 1, 5)'
p5467
(lp5468
g17
aI1
asS'action(south, 5, 1)'
p5469
(lp5470
g17
aI1
asS'action(east, 5, 3)'
p5471
(lp5472
g17
aI1
asS'action(south, 3, 4)'
p5473
(lp5474
g17
aI1
asS'action(west, 3, 5)'
p5475
(lp5476
g17
aI1
asS'action(north, 4, 1)'
p5477
(lp5478
g17
aI1
asS'action(north, 3, 4)'
p5479
(lp5480
g17
aI1
asS'action(west, 3, 1)'
p5481
(lp5482
g17
aI1
asS'action(south, 4, 3)'
p5483
(lp5484
g17
aI1
asS'action(near, 3, 4)'
p5485
(lp5486
g17
aI1
asS'action(north, 3, 5)'
p5487
(lp5488
g17
aI1
asS'action(east, 5, 1)'
p5489
(lp5490
g17
aI1
asS'action(north, 1, 4)'
p5491
(lp5492
g17
aI1
asS'action(north, 5, 3)'
p5493
(lp5494
g17
aI1
asS'action(south, 1, 4)'
p5495
(lp5496
g17
aI1
asS'action(south, 4, 5)'
p5497
(lp5498
g17
aI1
asS'action(north, 4, 5)'
p5499
(lp5500
g17
aI1
asS'action(north, 5, 1)'
p5501
(lp5502
g17
aI1
asS'action(south, 4, 1)'
p5503
(lp5504
g17
aI1
asS'action(west, 4, 3)'
p5505
(lp5506
g17
aI1
asS'action(near, 5, 4)'
p5507
(lp5508
g17
aI1
asS'action(east, 3, 4)'
p5509
(lp5510
g17
aI1
asS'action(east, 1, 5)'
p5511
(lp5512
g17
aI1
asS'action(west, 5, 3)'
p5513
(lp5514
g17
aI1
asS'action(north, 3, 1)'
p5515
(lp5516
g17
aI1
asS'action(east, 1, 3)'
p5517
(lp5518
g17
aI1
asS'action(near, 1, 5)'
p5519
(lp5520
g17
aI1
asS'action(west, 5, 4)'
p5521
(lp5522
g17
aI1
asS'action(west, 3, 4)'
p5523
(lp5524
g17
aI1
asS'action(west, 1, 4)'
p5525
(lp5526
g17
aI1
asg31
(lp5527
g22
aI60
asS'action(south, 5, 3)'
p5528
(lp5529
g17
aI1
asS'action(near, 1, 3)'
p5530
(lp5531
g17
aI1
asS'action(south, 1, 3)'
p5532
(lp5533
g17
aI1
asS'action(east, 5, 4)'
p5534
(lp5535
g17
aI1
asS'action(near, 4, 3)'
p5536
(lp5537
g17
aI1
asS'action(near, 3, 5)'
p5538
(lp5539
g17
aI1
astp5540
aag74
ag84
aa(lp5541
(lp5542
((lp5543
S'cup(0)'
p5544
aS'fork(3)'
p5545
aS'plate(4)'
p5546
aS'bowl(6)'
p5547
aS'not_near(0, 3)'
p5548
aS'not_east(0, 3)'
p5549
aS'not_west(0, 3)'
p5550
aS'south(0, 3)'
p5551
aS'not_near(0, 4)'
p5552
aS'east(0, 4)'
p5553
aS'not_west(0, 4)'
p5554
aS'south(0, 4)'
p5555
aS'near(0, 6)'
p5556
aS'not_east(0, 6)'
p5557
aS'west(0, 6)'
p5558
aS'not_south(0, 6)'
p5559
aS'not_near(3, 0)'
p5560
aS'not_east(3, 0)'
p5561
aS'not_west(3, 0)'
p5562
aS'not_south(3, 0)'
p5563
aS'not_near(3, 4)'
p5564
aS'east(3, 4)'
p5565
aS'not_west(3, 4)'
p5566
aS'south(3, 4)'
p5567
aS'near(3, 6)'
p5568
aS'not_east(3, 6)'
p5569
aS'not_west(3, 6)'
p5570
aS'not_south(3, 6)'
p5571
aS'not_near(4, 0)'
p5572
aS'not_east(4, 0)'
p5573
aS'west(4, 0)'
p5574
aS'not_south(4, 0)'
p5575
aS'not_near(4, 3)'
p5576
aS'not_east(4, 3)'
p5577
aS'west(4, 3)'
p5578
aS'not_south(4, 3)'
p5579
aS'not_near(4, 6)'
p5580
aS'not_east(4, 6)'
p5581
aS'west(4, 6)'
p5582
aS'not_south(4, 6)'
p5583
aS'near(6, 0)'
p5584
aS'east(6, 0)'
p5585
aS'not_west(6, 0)'
p5586
aS'not_south(6, 0)'
p5587
aS'near(6, 3)'
p5588
aS'not_east(6, 3)'
p5589
aS'not_west(6, 3)'
p5590
aS'south(6, 3)'
p5591
aS'not_near(6, 4)'
p5592
aS'east(6, 4)'
p5593
aS'not_west(6, 4)'
p5594
aS'south(6, 4)'
p5595
a(dp5596
S'action(north, 6, 3)'
p5597
(lp5598
g17
aI1
asS'action(west, 4, 3)'
p5599
(lp5600
g17
aI1
asS'action(west, 3, 0)'
p5601
(lp5602
g22
aI19
asS'action(near, 6, 4)'
p5603
(lp5604
g17
aI1
asS'action(east, 6, 3)'
p5605
(lp5606
g17
aI1
asS'action(north, 0, 4)'
p5607
(lp5608
g17
aI1
asS'action(west, 6, 3)'
p5609
(lp5610
g17
aI1
asS'action(north, 6, 4)'
p5611
(lp5612
g17
aI1
asS'action(south, 4, 6)'
p5613
(lp5614
g17
aI1
asg31
(lp5615
g17
aI1
asS'action(east, 4, 3)'
p5616
(lp5617
g17
aI1
asS'action(near, 6, 0)'
p5618
(lp5619
g17
aI1
asS'action(south, 4, 0)'
p5620
(lp5621
g17
aI1
asS'action(north, 3, 0)'
p5622
(lp5623
g17
aI1
asS'action(north, 0, 3)'
p5624
(lp5625
g17
aI1
asS'action(south, 0, 3)'
p5626
(lp5627
g17
aI1
asS'action(north, 4, 3)'
p5628
(lp5629
g17
aI1
asS'action(south, 0, 6)'
p5630
(lp5631
g17
aI1
asS'action(west, 0, 3)'
p5632
(lp5633
g17
aI1
asS'action(east, 0, 3)'
p5634
(lp5635
g17
aI1
asS'action(north, 0, 6)'
p5636
(lp5637
g17
aI1
asS'action(near, 0, 6)'
p5638
(lp5639
g17
aI1
asS'action(north, 3, 6)'
p5640
(lp5641
g17
aI1
asS'action(north, 3, 4)'
p5642
(lp5643
g17
aI1
asS'action(south, 3, 0)'
p5644
(lp5645
g17
aI1
asS'action(near, 3, 6)'
p5646
(lp5647
g17
aI1
asS'action(north, 4, 6)'
p5648
(lp5649
g17
aI1
asS'action(south, 4, 3)'
p5650
(lp5651
g17
aI1
asS'action(west, 4, 0)'
p5652
(lp5653
g17
aI1
asS'action(near, 3, 4)'
p5654
(lp5655
g22
aI19
asS'action(east, 6, 4)'
p5656
(lp5657
g17
aI1
asS'action(near, 0, 4)'
p5658
(lp5659
g17
aI1
asS'action(near, 3, 0)'
p5660
(lp5661
g17
aI1
asS'action(east, 6, 0)'
p5662
(lp5663
g17
aI1
asS'action(west, 6, 4)'
p5664
(lp5665
g17
aI1
asS'action(east, 4, 6)'
p5666
(lp5667
g17
aI1
asS'action(near, 4, 0)'
p5668
(lp5669
g17
aI1
asS'action(west, 6, 0)'
p5670
(lp5671
g17
aI1
asS'action(near, 4, 6)'
p5672
(lp5673
g17
aI1
asS'action(north, 6, 0)'
p5674
(lp5675
g17
aI1
asS'action(east, 4, 0)'
p5676
(lp5677
g17
aI1
asS'action(south, 0, 4)'
p5678
(lp5679
g17
aI1
asS'action(east, 3, 0)'
p5680
(lp5681
g17
aI1
asS'action(near, 6, 3)'
p5682
(lp5683
g17
aI1
asS'action(east, 3, 4)'
p5684
(lp5685
g17
aI1
asS'action(east, 3, 6)'
p5686
(lp5687
g17
aI1
asS'action(south, 3, 4)'
p5688
(lp5689
g17
aI1
asS'action(south, 3, 6)'
p5690
(lp5691
g17
aI1
asS'action(west, 0, 4)'
p5692
(lp5693
g17
aI1
asS'action(south, 6, 4)'
p5694
(lp5695
g17
aI1
asS'action(west, 0, 6)'
p5696
(lp5697
g17
aI1
asS'action(west, 4, 6)'
p5698
(lp5699
g17
aI1
asS'action(west, 3, 4)'
p5700
(lp5701
g17
aI1
asS'action(east, 0, 6)'
p5702
(lp5703
g17
aI1
asS'action(south, 6, 3)'
p5704
(lp5705
g17
aI1
asS'action(south, 6, 0)'
p5706
(lp5707
g17
aI1
asS'action(east, 0, 4)'
p5708
(lp5709
g17
aI1
asS'action(near, 0, 3)'
p5710
(lp5711
g17
aI1
asS'action(north, 4, 0)'
p5712
(lp5713
g17
aI1
asS'action(near, 4, 3)'
p5714
(lp5715
g17
aI1
asS'action(west, 3, 6)'
p5716
(lp5717
g22
aI19
astp5718
a((lp5719
S'cup(0)'
p5720
aS'fork(3)'
p5721
aS'plate(4)'
p5722
aS'bowl(6)'
p5723
aS'not_near(0, 3)'
p5724
aS'east(0, 3)'
p5725
aS'not_west(0, 3)'
p5726
aS'south(0, 3)'
p5727
aS'not_near(0, 4)'
p5728
aS'east(0, 4)'
p5729
aS'not_west(0, 4)'
p5730
aS'south(0, 4)'
p5731
aS'near(0, 6)'
p5732
aS'not_east(0, 6)'
p5733
aS'west(0, 6)'
p5734
aS'not_south(0, 6)'
p5735
aS'not_near(3, 0)'
p5736
aS'not_east(3, 0)'
p5737
aS'west(3, 0)'
p5738
aS'not_south(3, 0)'
p5739
aS'near(3, 4)'
p5740
aS'east(3, 4)'
p5741
aS'not_west(3, 4)'
p5742
aS'not_south(3, 4)'
p5743
aS'not_near(3, 6)'
p5744
aS'not_east(3, 6)'
p5745
aS'west(3, 6)'
p5746
aS'not_south(3, 6)'
p5747
aS'not_near(4, 0)'
p5748
aS'not_east(4, 0)'
p5749
aS'west(4, 0)'
p5750
aS'not_south(4, 0)'
p5751
aS'near(4, 3)'
p5752
aS'not_east(4, 3)'
p5753
aS'west(4, 3)'
p5754
aS'not_south(4, 3)'
p5755
aS'not_near(4, 6)'
p5756
aS'not_east(4, 6)'
p5757
aS'west(4, 6)'
p5758
aS'not_south(4, 6)'
p5759
aS'near(6, 0)'
p5760
aS'east(6, 0)'
p5761
aS'not_west(6, 0)'
p5762
aS'not_south(6, 0)'
p5763
aS'not_near(6, 3)'
p5764
aS'east(6, 3)'
p5765
aS'not_west(6, 3)'
p5766
aS'south(6, 3)'
p5767
aS'not_near(6, 4)'
p5768
aS'east(6, 4)'
p5769
aS'not_west(6, 4)'
p5770
aS'south(6, 4)'
p5771
a(dp5772
S'action(north, 6, 3)'
p5773
(lp5774
g17
aI1
asS'action(west, 4, 3)'
p5775
(lp5776
g17
aI1
asS'action(west, 3, 0)'
p5777
(lp5778
g17
aI1
asS'action(near, 6, 4)'
p5779
(lp5780
g17
aI1
asS'action(east, 6, 3)'
p5781
(lp5782
g17
aI1
asS'action(north, 0, 4)'
p5783
(lp5784
g17
aI1
asS'action(west, 6, 3)'
p5785
(lp5786
g17
aI1
asS'action(north, 6, 4)'
p5787
(lp5788
g17
aI1
asS'action(south, 4, 6)'
p5789
(lp5790
g17
aI1
asg31
(lp5791
g22
aI60
asS'action(east, 4, 3)'
p5792
(lp5793
g17
aI1
asS'action(near, 6, 0)'
p5794
(lp5795
g17
aI1
asS'action(south, 4, 0)'
p5796
(lp5797
g17
aI1
asS'action(north, 3, 0)'
p5798
(lp5799
g17
aI1
asS'action(north, 0, 3)'
p5800
(lp5801
g17
aI1
asS'action(south, 0, 3)'
p5802
(lp5803
g17
aI1
asS'action(north, 4, 3)'
p5804
(lp5805
g17
aI1
asS'action(south, 0, 6)'
p5806
(lp5807
g17
aI1
asS'action(west, 0, 3)'
p5808
(lp5809
g17
aI1
asS'action(east, 0, 3)'
p5810
(lp5811
g17
aI1
asS'action(north, 0, 6)'
p5812
(lp5813
g17
aI1
asS'action(near, 0, 6)'
p5814
(lp5815
g17
aI1
asS'action(north, 3, 6)'
p5816
(lp5817
g17
aI1
asS'action(north, 3, 4)'
p5818
(lp5819
g17
aI1
asS'action(south, 3, 0)'
p5820
(lp5821
g17
aI1
asS'action(near, 3, 6)'
p5822
(lp5823
g17
aI1
asS'action(north, 4, 6)'
p5824
(lp5825
g17
aI1
asS'action(south, 4, 3)'
p5826
(lp5827
g17
aI1
asS'action(west, 4, 0)'
p5828
(lp5829
g17
aI1
asS'action(near, 3, 4)'
p5830
(lp5831
g17
aI1
asS'action(east, 6, 4)'
p5832
(lp5833
g17
aI1
asS'action(near, 0, 4)'
p5834
(lp5835
g17
aI1
asS'action(near, 3, 0)'
p5836
(lp5837
g17
aI1
asS'action(east, 6, 0)'
p5838
(lp5839
g17
aI1
asS'action(west, 6, 4)'
p5840
(lp5841
g17
aI1
asS'action(east, 4, 6)'
p5842
(lp5843
g17
aI1
asS'action(near, 4, 0)'
p5844
(lp5845
g17
aI1
asS'action(west, 6, 0)'
p5846
(lp5847
g17
aI1
asS'action(near, 4, 6)'
p5848
(lp5849
g17
aI1
asS'action(north, 6, 0)'
p5850
(lp5851
g17
aI1
asS'action(east, 4, 0)'
p5852
(lp5853
g17
aI1
asS'action(south, 0, 4)'
p5854
(lp5855
g17
aI1
asS'action(east, 3, 0)'
p5856
(lp5857
g17
aI1
asS'action(near, 6, 3)'
p5858
(lp5859
g17
aI1
asS'action(east, 3, 4)'
p5860
(lp5861
g17
aI1
asS'action(east, 3, 6)'
p5862
(lp5863
g17
aI1
asS'action(south, 3, 4)'
p5864
(lp5865
g17
aI1
asS'action(south, 3, 6)'
p5866
(lp5867
g17
aI1
asS'action(west, 0, 4)'
p5868
(lp5869
g17
aI1
asS'action(south, 6, 4)'
p5870
(lp5871
g17
aI1
asS'action(west, 0, 6)'
p5872
(lp5873
g17
aI1
asS'action(west, 4, 6)'
p5874
(lp5875
g17
aI1
asS'action(west, 3, 4)'
p5876
(lp5877
g17
aI1
asS'action(east, 0, 6)'
p5878
(lp5879
g17
aI1
asS'action(south, 6, 3)'
p5880
(lp5881
g17
aI1
asS'action(south, 6, 0)'
p5882
(lp5883
g17
aI1
asS'action(east, 0, 4)'
p5884
(lp5885
g17
aI1
asS'action(near, 0, 3)'
p5886
(lp5887
g17
aI1
asS'action(north, 4, 0)'
p5888
(lp5889
g17
aI1
asS'action(near, 4, 3)'
p5890
(lp5891
g17
aI1
asS'action(west, 3, 6)'
p5892
(lp5893
g17
aI1
astp5894
aag74
ag84
aa(lp5895
(lp5896
((lp5897
S'cup(0)'
p5898
aS'fork(3)'
p5899
aS'plate(4)'
p5900
aS'not_near(0, 3)'
p5901
aS'not_east(0, 3)'
p5902
aS'not_west(0, 3)'
p5903
aS'south(0, 3)'
p5904
aS'not_near(0, 4)'
p5905
aS'east(0, 4)'
p5906
aS'not_west(0, 4)'
p5907
aS'south(0, 4)'
p5908
aS'not_near(3, 0)'
p5909
aS'not_east(3, 0)'
p5910
aS'not_west(3, 0)'
p5911
aS'not_south(3, 0)'
p5912
aS'not_near(3, 4)'
p5913
aS'east(3, 4)'
p5914
aS'not_west(3, 4)'
p5915
aS'not_south(3, 4)'
p5916
aS'not_near(4, 0)'
p5917
aS'not_east(4, 0)'
p5918
aS'west(4, 0)'
p5919
aS'not_south(4, 0)'
p5920
aS'not_near(4, 3)'
p5921
aS'not_east(4, 3)'
p5922
aS'west(4, 3)'
p5923
aS'south(4, 3)'
p5924
a(dp5925
S'action(west, 4, 3)'
p5926
(lp5927
g17
aI1
asS'action(west, 3, 0)'
p5928
(lp5929
g22
aI14
asS'action(east, 3, 0)'
p5930
(lp5931
g17
aI1
asg31
(lp5932
g17
aI1
asS'action(east, 4, 3)'
p5933
(lp5934
g17
aI1
asS'action(south, 4, 0)'
p5935
(lp5936
g17
aI1
asS'action(north, 3, 0)'
p5937
(lp5938
g17
aI1
asS'action(north, 0, 3)'
p5939
(lp5940
g17
aI1
asS'action(south, 0, 3)'
p5941
(lp5942
g17
aI1
asS'action(west, 0, 3)'
p5943
(lp5944
g17
aI1
asS'action(east, 0, 3)'
p5945
(lp5946
g17
aI1
asS'action(north, 3, 4)'
p5947
(lp5948
g17
aI1
asS'action(south, 4, 3)'
p5949
(lp5950
g17
aI1
asS'action(west, 4, 0)'
p5951
(lp5952
g17
aI1
asS'action(near, 3, 4)'
p5953
(lp5954
g22
aI14
asS'action(near, 0, 4)'
p5955
(lp5956
g17
aI1
asS'action(near, 3, 0)'
p5957
(lp5958
g17
aI1
asS'action(north, 4, 3)'
p5959
(lp5960
g17
aI1
asS'action(near, 4, 0)'
p5961
(lp5962
g17
aI1
asS'action(south, 3, 0)'
p5963
(lp5964
g17
aI1
asS'action(east, 4, 0)'
p5965
(lp5966
g17
aI1
asS'action(north, 0, 4)'
p5967
(lp5968
g17
aI1
asS'action(east, 3, 4)'
p5969
(lp5970
g17
aI1
asS'action(south, 0, 4)'
p5971
(lp5972
g17
aI1
asS'action(south, 3, 4)'
p5973
(lp5974
g17
aI1
asS'action(west, 0, 4)'
p5975
(lp5976
g17
aI1
asS'action(west, 3, 4)'
p5977
(lp5978
g17
aI1
asS'action(east, 0, 4)'
p5979
(lp5980
g17
aI1
asS'action(near, 0, 3)'
p5981
(lp5982
g17
aI1
asS'action(near, 4, 3)'
p5983
(lp5984
g17
aI1
asS'action(north, 4, 0)'
p5985
(lp5986
g17
aI1
astp5987
a((lp5988
S'cup(0)'
p5989
aS'fork(3)'
p5990
aS'plate(4)'
p5991
aS'not_near(0, 3)'
p5992
aS'east(0, 3)'
p5993
aS'not_west(0, 3)'
p5994
aS'south(0, 3)'
p5995
aS'not_near(0, 4)'
p5996
aS'east(0, 4)'
p5997
aS'not_west(0, 4)'
p5998
aS'south(0, 4)'
p5999
aS'not_near(3, 0)'
p6000
aS'not_east(3, 0)'
p6001
aS'west(3, 0)'
p6002
aS'not_south(3, 0)'
p6003
aS'near(3, 4)'
p6004
aS'east(3, 4)'
p6005
aS'not_west(3, 4)'
p6006
aS'not_south(3, 4)'
p6007
aS'not_near(4, 0)'
p6008
aS'not_east(4, 0)'
p6009
aS'west(4, 0)'
p6010
aS'not_south(4, 0)'
p6011
aS'near(4, 3)'
p6012
aS'not_east(4, 3)'
p6013
aS'west(4, 3)'
p6014
aS'not_south(4, 3)'
p6015
a(dp6016
S'action(west, 4, 3)'
p6017
(lp6018
g17
aI1
asS'action(west, 3, 0)'
p6019
(lp6020
g17
aI1
asS'action(east, 3, 0)'
p6021
(lp6022
g17
aI1
asg31
(lp6023
g22
aI30
asS'action(east, 4, 3)'
p6024
(lp6025
g17
aI1
asS'action(south, 4, 0)'
p6026
(lp6027
g17
aI1
asS'action(north, 3, 0)'
p6028
(lp6029
g17
aI1
asS'action(north, 0, 3)'
p6030
(lp6031
g17
aI1
asS'action(south, 0, 3)'
p6032
(lp6033
g17
aI1
asS'action(west, 0, 3)'
p6034
(lp6035
g17
aI1
asS'action(east, 0, 3)'
p6036
(lp6037
g17
aI1
asS'action(north, 3, 4)'
p6038
(lp6039
g17
aI1
asS'action(south, 4, 3)'
p6040
(lp6041
g17
aI1
asS'action(west, 4, 0)'
p6042
(lp6043
g17
aI1
asS'action(near, 3, 4)'
p6044
(lp6045
g17
aI1
asS'action(near, 0, 4)'
p6046
(lp6047
g17
aI1
asS'action(near, 3, 0)'
p6048
(lp6049
g17
aI1
asS'action(north, 4, 3)'
p6050
(lp6051
g17
aI1
asS'action(near, 4, 0)'
p6052
(lp6053
g17
aI1
asS'action(south, 3, 0)'
p6054
(lp6055
g17
aI1
asS'action(east, 4, 0)'
p6056
(lp6057
g17
aI1
asS'action(north, 0, 4)'
p6058
(lp6059
g17
aI1
asS'action(east, 3, 4)'
p6060
(lp6061
g17
aI1
asS'action(south, 0, 4)'
p6062
(lp6063
g17
aI1
asS'action(south, 3, 4)'
p6064
(lp6065
g17
aI1
asS'action(west, 0, 4)'
p6066
(lp6067
g17
aI1
asS'action(west, 3, 4)'
p6068
(lp6069
g17
aI1
asS'action(east, 0, 4)'
p6070
(lp6071
g17
aI1
asS'action(near, 0, 3)'
p6072
(lp6073
g17
aI1
asS'action(near, 4, 3)'
p6074
(lp6075
g17
aI1
asS'action(north, 4, 0)'
p6076
(lp6077
g17
aI1
astp6078
aag74
ag84
aa.